
CH32V307RCT6_上位机控制软件.elf:     file format elf32-littleriscv
CH32V307RCT6_上位机控制软件.elf
architecture: riscv:rv32, flags 0x00000112:
EXEC_P, HAS_SYMS, D_PAGED
start address 0x00000000

Program Header:
    LOAD off    0x00001000 vaddr 0x00000000 paddr 0x00000000 align 2**12
         filesz 0x00003744 memsz 0x00003744 flags r-x
    LOAD off    0x00005000 vaddr 0x20000000 paddr 0x00003744 align 2**12
         filesz 0x000000b0 memsz 0x00000514 flags rw-
    LOAD off    0x00005800 vaddr 0x20007800 paddr 0x20007800 align 2**12
         filesz 0x00000000 memsz 0x00000800 flags rw-

Sections:
Idx Name          Size      VMA       LMA       File off  Algn
  0 .init         00000038  00000000  00000000  00001000  2**1
                  CONTENTS, ALLOC, LOAD, READONLY, CODE
  1 .vector       000001c8  00000038  00000038  00001038  2**1
                  CONTENTS, ALLOC, LOAD, READONLY, CODE
  2 .text         00003544  00000200  00000200  00001200  2**2
                  CONTENTS, ALLOC, LOAD, READONLY, CODE
  3 .fini         00000000  00003744  00003744  000050b0  2**0
                  CONTENTS, ALLOC, LOAD, CODE
  4 .dalign       00000000  20000000  20000000  000050b0  2**0
                  CONTENTS
  5 .dlalign      00000000  00003744  00003744  000050b0  2**0
                  CONTENTS
  6 .data         000000b0  20000000  00003744  00005000  2**2
                  CONTENTS, ALLOC, LOAD, DATA
  7 .bss          00000464  200000b0  000037f4  000050b0  2**2
                  ALLOC
  8 .stack        00000800  20007800  20007800  00005800  2**0
                  ALLOC
  9 .debug_info   00010c3f  00000000  00000000  000050b0  2**0
                  CONTENTS, READONLY, DEBUGGING
 10 .debug_abbrev 0000276c  00000000  00000000  00015cef  2**0
                  CONTENTS, READONLY, DEBUGGING
 11 .debug_loc    00004d76  00000000  00000000  0001845b  2**0
                  CONTENTS, READONLY, DEBUGGING
 12 .debug_aranges 000008d0  00000000  00000000  0001d1d8  2**3
                  CONTENTS, READONLY, DEBUGGING
 13 .debug_ranges 00000890  00000000  00000000  0001daa8  2**3
                  CONTENTS, READONLY, DEBUGGING
 14 .debug_line   0000caf1  00000000  00000000  0001e338  2**0
                  CONTENTS, READONLY, DEBUGGING
 15 .debug_str    00002986  00000000  00000000  0002ae29  2**0
                  CONTENTS, READONLY, DEBUGGING
 16 .comment      00000033  00000000  00000000  0002d7af  2**0
                  CONTENTS, READONLY
 17 .debug_frame  00002120  00000000  00000000  0002d7e4  2**2
                  CONTENTS, READONLY, DEBUGGING
 18 .stabstr      00000117  00000000  00000000  0002f904  2**0
                  CONTENTS, READONLY, DEBUGGING
SYMBOL TABLE:
00000000 l    d  .init	00000000 .init
00000038 l    d  .vector	00000000 .vector
00000200 l    d  .text	00000000 .text
00003744 l    d  .fini	00000000 .fini
20000000 l    d  .dalign	00000000 .dalign
00003744 l    d  .dlalign	00000000 .dlalign
20000000 l    d  .data	00000000 .data
200000b0 l    d  .bss	00000000 .bss
20007800 l    d  .stack	00000000 .stack
00000000 l    d  .debug_info	00000000 .debug_info
00000000 l    d  .debug_abbrev	00000000 .debug_abbrev
00000000 l    d  .debug_loc	00000000 .debug_loc
00000000 l    d  .debug_aranges	00000000 .debug_aranges
00000000 l    d  .debug_ranges	00000000 .debug_ranges
00000000 l    d  .debug_line	00000000 .debug_line
00000000 l    d  .debug_str	00000000 .debug_str
00000000 l    d  .comment	00000000 .comment
00000000 l    d  .debug_frame	00000000 .debug_frame
00000000 l    d  .stabstr	00000000 .stabstr
00000000 l    df *ABS*	00000000 ./Startup/startup_ch32v30x_D8C.o
00000038 l       .vector	00000000 _vector_base
00000000 l    df *ABS*	00000000 USART.c
00000000 l    df *ABS*	00000000 IIC_OLED.c
00000000 l    df *ABS*	00000000 KEY.c
00000000 l    df *ABS*	00000000 LED.c
00000000 l    df *ABS*	00000000 MotorControl.c
00000000 l    df *ABS*	00000000 ch32v30x_it.c
00000000 l    df *ABS*	00000000 main.c
00000000 l    df *ABS*	00000000 system_ch32v30x.c
00000000 l    df *ABS*	00000000 ch32v30x_gpio.c
00000000 l    df *ABS*	00000000 ch32v30x_misc.c
00000000 l    df *ABS*	00000000 ch32v30x_rcc.c
20000000 l     O .data	00000010 APBAHBPrescTable
200000a4 l     O .data	00000004 ADCPrescTable
00000000 l    df *ABS*	00000000 ch32v30x_usart.c
00000000 l    df *ABS*	00000000 debug.c
200000fc l     O .bss	00000002 p_ms
200000fe l     O .bss	00000001 p_us
200000a8 l     O .data	00000004 curbrk.5228
00000000 l    df *ABS*	00000000 mulsf3.c
00000000 l    df *ABS*	00000000 fixunssfsi.c
00000000 l    df *ABS*	00000000 floatunsisf.c
00000000 l    df *ABS*	00000000 libgcc2.c
00000000 l    df *ABS*	00000000 sprintf.c
00000000 l    df *ABS*	00000000 nano-mallocr.c
00000000 l    df *ABS*	00000000 nano-vfprintf.c
00000000 l    df *ABS*	00000000 nano-vfprintf_i.c
00000000 l    df *ABS*	00000000 sbrkr.c
00000000 l    df *ABS*	00000000 memchr.c
00000000 l    df *ABS*	00000000 memcpy.c
00000000 l    df *ABS*	00000000 memmove.c
00000000 l    df *ABS*	00000000 mlock.c
00000000 l    df *ABS*	00000000 nano-mallocr.c
00000000 l    df *ABS*	00000000 nano-mallocr.c
00000000 l    df *ABS*	00000000 nano-mallocr.c
00000000 l    df *ABS*	00000000 libgcc2.c
00000000 l    df *ABS*	00000000 findfp.c
00000000 l    df *ABS*	00000000 impure.c
20000010 l     O .data	00000060 impure_data
00000000 l    df *ABS*	00000000 reent.c
00000000 l    df *ABS*	00000000 close.c
000032ec g     F .text	00000014 _malloc_usable_size_r
00001e12  w      .text	00000000 EXTI2_IRQHandler
00001e5c  w      .text	00000000 TIM8_TRG_COM_IRQHandler
00001e5e  w      .text	00000000 TIM8_CC_IRQHandler
200000e9 g     O .bss	00000001 UsartData4
200000be g     O .bss	00000001 Usart2_Status
0000073c g     F .text	00000020 USARTx_SendByte
00001874 g     F .text	00000106 UART8_IRQHandler
20000091 g     O .data	00000001 Motor3_Power
00001ffe g     F .text	0000000a GPIO_ReadOutputDataBit
00000f12 g     F .text	0000000e LED1_OFF
20000870 g       .data	00000000 __global_pointer$
00001e38  w      .text	00000000 TIM1_CC_IRQHandler
0000197e g     F .text	00000002 HardFault_Handler
000031ea g     F .text	00000002 __malloc_unlock
00001e6e  w      .text	00000000 TIM6_IRQHandler
00001dfe  w      .text	00000000 SysTick_Handler
00002016 g     F .text	000000b8 NVIC_Init
00000e00 g     F .text	00000048 OLED12864_Format4
00000d70 g     F .text	00000048 OLED12864_Format1
00000f30 g     F .text	00000062 LEDInit
00001e04  w      .text	00000000 PVD_IRQHandler
00001e64  w      .text	00000000 SDIO_IRQHandler
0000319e g     F .text	0000004a memmove
00001e96  w      .text	00000000 TIM9_BRK_IRQHandler
00001eaa  w      .text	00000000 DMA2_Channel8_IRQHandler
0000197a g     F .text	00000004 NMI_Handler
00000d0e g     F .text	00000062 OLED12864_DisStr
200000c8 g     O .bss	00000004 Usart4_buf
00001e84  w      .text	00000000 CAN2_RX1_IRQHandler
00001e14  w      .text	00000000 EXTI3_IRQHandler
2000008e g     O .data	00000002 Motor2_Temp
200000b6 g     O .bss	00000002 Get_Motor2_Data
00001e8c  w      .text	00000000 USBHS_IRQHandler
00002358 g     F .text	0000000c USART_GetFlagStatus
00001eac  w      .text	00000000 DMA2_Channel9_IRQHandler
00000bf8 g     F .text	0000004e ClearBuf
00001ea4  w      .text	00000000 TIM10_CC_IRQHandler
20000510 g     O .bss	00000004 errno
200000b0 g       .bss	00000000 _sbss
00000800 g       *ABS*	00000000 __stack_size
2000008c g     O .data	00000001 Motor2_Mode
000030e8 g     F .text	000000b6 memcpy
00002a74 g     F .text	0000027a _svfprintf_r
200000e8 g     O .bss	00000001 UsartData2
20000070 g     O .data	00000008 COM_INFOR_GET
2000008d g     O .data	00000001 Motor2_Power
00001e0e  w      .text	00000000 EXTI0_IRQHandler
00000e90 g     F .text	00000082 Key_Init
00001e44  w      .text	00000000 I2C2_EV_IRQHandler
00001ea2  w      .text	00000000 TIM10_TRG_COM_IRQHandler
200000c6 g     O .bss	00000001 Usart4_Status
200000a0 g     O .data	00000004 SystemCoreClock
00000a88 g     F .text	00000084 WriteBytetoBuf
00000558 g     F .text	000000a2 USART6_Configuration
20000095 g     O .data	00000001 Motor4_Power
0000234e g     F .text	0000000a USART_ReceiveData
00000c78 g     F .text	0000003a WriteRevChartoBuf
00000038 g       .init	00000000 _einit
000021dc g     F .text	0000001e RCC_APB2PeriphClockCmd
00001e86  w      .text	00000000 CAN2_SCE_IRQHandler
00001e26  w      .text	00000000 ADC1_2_IRQHandler
00001f3c g     F .text	000000c2 GPIO_Init
00001dfc  w      .text	00000000 Break_Point_Handler
200000f0 g     O .bss	00000002 Motor2_Current
200000f8 g     O .bss	00000004 NVIC_Priority_Group
00001e48  w      .text	00000000 SPI1_IRQHandler
000022f2 g     F .text	0000001c USART_Cmd
000007de g     F .text	00000040 OLED_IIC_Start
000030a4 g     F .text	0000002a _sbrk_r
00001e06  w      .text	00000000 TAMPER_IRQHandler
200000d0 g     O .bss	00000004 Usart5_buf
00000db8 g     F .text	00000048 OLED12864_Format3
000023b6 g     F .text	00000016 USART_ClearITPendingBit
00001e82  w      .text	00000000 CAN2_RX0_IRQHandler
20000092 g     O .data	00000002 Motor3_Temp
00001e5a  w      .text	00000000 TIM8_UP_IRQHandler
20000096 g     O .data	00000002 Motor4_Temp
000021fa g     F .text	0000001e RCC_APB1PeriphClockCmd
00001df8  w      .text	00000000 Ecall_M_Mode_Handler
200000ec g     O .bss	00000001 UsartData8
20000108 g     O .bss	00000400 DisBuff
20007800 g       .stack	00000000 _heap_end
00000f20 g     F .text	00000010 LED2_OFF
00000c46 g     F .text	00000032 WriteChartoBuf
00003294 g     F .text	00000058 _realloc_r
00000400 g     F .text	000000a8 USART4_Configuration
200000de g     O .bss	00000001 Usart7Data
00001e74  w      .text	00000000 DMA2_Channel2_IRQHandler
00001e1e  w      .text	00000000 DMA1_Channel4_IRQHandler
00002420 g     F .text	00000026 _sbrk
200000b0 g     O .bss	00000004 DataTest
00003300 g     O .text	00000222 Font6x8
00001e98  w      .text	00000000 TIM9_UP_IRQHandler
0000157e g     F .text	00000036 USART3_IRQHandler
00001e08  w      .text	00000000 RTC_IRQHandler
20000514 g       .bss	00000000 _ebss
00002372 g     F .text	00000044 USART_GetITStatus
00001e24  w      .text	00000000 DMA1_Channel7_IRQHandler
00001e2c  w      .text	00000000 CAN1_RX1_IRQHandler
000023cc g     F .text	00000026 Delay_Init
00000fc6 g     F .text	000000d0 MotorSpeedINIT
00001e8e  w      .text	00000000 DVP_IRQHandler
200000cd g     O .bss	00000001 Usart5_Status
000016c6 g     F .text	00000106 UART5_IRQHandler
00001132 g     F .text	0000009c MotorTempGet
00002008 g     F .text	00000004 GPIO_SetBits
00001e3e  w      .text	00000000 TIM4_IRQHandler
00001e72  w      .text	00000000 DMA2_Channel1_IRQHandler
000036a8 g     O .text	00000020 __sf_fake_stderr
00001e40  w      .text	00000000 I2C1_EV_IRQHandler
200000ee g     O .bss	00000002 Motor1_Current
0000298c g     F .text	000000e8 __ssputs_r
000020ce g     F .text	0000010e RCC_GetClocksFreq
200000f4 g     O .bss	00000002 Motor4_Current
2000008a g     O .data	00000002 Motor1_Temp
00001e22  w      .text	00000000 DMA1_Channel6_IRQHandler
000027fa g     F .text	00000076 .hidden __clzsi2
000015b4 g     F .text	00000112 UART4_IRQHandler
00001e78  w      .text	00000000 DMA2_Channel4_IRQHandler
000030ce g     F .text	0000001a memchr
00002218 g     F .text	000000da USART_Init
000031ec g     F .text	000000a8 _free_r
00000b3e g     F .text	000000ba OLED12864_Init
00000978 g     F .text	00000058 RefreshAll
00001e3c  w      .text	00000000 TIM3_IRQHandler
00001e0c  w      .text	00000000 RCC_IRQHandler
00001e36  w      .text	00000000 TIM1_TRG_COM_IRQHandler
00001e18  w      .text	00000000 DMA1_Channel1_IRQHandler
00001096 g     F .text	0000009c MotorCurrentGet
20000508 g     O .bss	00000002 Buff
00000000 g       .init	00000000 _start
00001ea8  w      .text	00000000 DMA2_Channel7_IRQHandler
00000ce0 g     F .text	0000002e WriteRevStrtoBuf
0000069c g     F .text	000000a0 USART8_Configuration
00001e52  w      .text	00000000 EXTI15_10_IRQHandler
200000bc g     O .bss	00000001 Usart1Data
200000c4 g     O .bss	00000001 Usart3Data
0000230e g     F .text	00000036 USART_ITConfig
200000d8 g     O .bss	00000006 Usart6_buf
00000cb2 g     F .text	0000002e WriteStrtoBuf
0000200c g     F .text	00000004 GPIO_ResetBits
00001e70  w      .text	00000000 TIM7_IRQHandler
00001e80  w      .text	00000000 CAN2_TX_IRQHandler
20000000 g       .dalign	00000000 _data_vma
00001e66  w      .text	00000000 TIM5_IRQHandler
200000ea g     O .bss	00000001 UsartData5
000004a8 g     F .text	000000b0 USART5_Configuration
00001e30  w      .text	00000000 EXTI9_5_IRQHandler
000008e0 g     F .text	00000026 OLED12864_SendCom
00000906 g     F .text	00000028 OLED12864_SendData
00001e7e  w      .text	00000000 ETH_WKUP_IRQHandler
000031e8 g     F .text	00000002 __malloc_lock
0000126a g     F .text	000001cc NVIC_Configuration
200000bd g     O .bss	00000001 Usart2_Index
00001e4a  w      .text	00000000 SPI2_IRQHandler
000036c8 g     O .text	00000020 __sf_fake_stdin
00000350 g     F .text	000000b0 USART3_Configuration
000019bc g     F .text	0000036c main
20000090 g     O .data	00000001 Motor3_Mode
00001e9e  w      .text	00000000 TIM10_BRK_IRQHandler
000005fa g     F .text	000000a2 USART7_Configuration
00000a48 g     F .text	00000040 ClearPointofBuf
00001e9c  w      .text	00000000 TIM9_CC_IRQHandler
00001980 g     F .text	0000003c System_Init
00001e7a  w      .text	00000000 DMA2_Channel5_IRQHandler
200000e4 g     O .bss	00000004 Usart8_buf
00000b32 g     F .text	0000000c OLED12864_Clean
0000075c g     F .text	0000005a OLED12864_IoInit
000028b4 g     F .text	000000d8 _malloc_r
20000088 g     O .data	00000001 Motor1_Mode
000011ce g     F .text	0000009c MotorPowerGet
20000089 g     O .data	00000001 Motor1_Power
00001e20  w      .text	00000000 DMA1_Channel5_IRQHandler
00001e16  w      .text	00000000 EXTI4_IRQHandler
00001e2a  w      .text	00000000 USB_LP_CAN1_RX0_IRQHandler
00002446 g     F .text	00000290 .hidden __mulsf3
00002364 g     F .text	0000000e USART_ClearFlag
00001d28 g     F .text	000000cc SystemInit
00001e60  w      .text	00000000 RNG_IRQHandler
20000078 g     O .data	00000008 COM_LEFT_SPEED
20000098 g     O .data	00000004 Xdata
0000081e g     F .text	00000034 OLED_IIC_Stop
00001e28  w      .text	00000000 USB_HP_CAN1_TX_IRQHandler
00002870 g     F .text	00000044 sprintf
000035a8 g     O .text	00000100 .hidden __clz_tab
000002a6 g     F .text	000000aa USART2_Configuration
00000000 g       .init	00000000 _sinit
00001e1c  w      .text	00000000 DMA1_Channel3_IRQHandler
20000094 g     O .data	00000001 Motor4_Mode
00001e62  w      .text	00000000 FSMC_IRQHandler
00001e7c  w      .text	00000000 ETH_IRQHandler
00002cee g     F .text	0000010c _printf_common
200000ac g     O .data	00000004 _impure_ptr
00001e34  w      .text	00000000 TIM1_UP_IRQHandler
00000e48 g     F .text	00000048 OLED12864_Format6
00002a74 g     F .text	0000027a _svfiprintf_r
00001e02  w      .text	00000000 WWDG_IRQHandler
200000df g     O .bss	00000001 Usart8_Index
20000080 g     O .data	00000008 COM_RIGHT_SPEED
00001e8a  w      .text	00000000 USBHSWakeup_IRQHandler
00001eb0  w      .text	00000000 DMA2_Channel11_IRQHandler
00001dfa  w      .text	00000000 Ecall_U_Mode_Handler
200000ba g     O .bss	00000002 Get_Motor4_Data
200000c5 g     O .bss	00000001 Usart4_Index
00001ea6  w      .text	00000000 DMA2_Channel6_IRQHandler
00001e3a  w      .text	00000000 TIM2_IRQHandler
00000f92 g     F .text	00000034 LED1Reverse
20008000 g       .stack	00000000 _eusrstack
0000092e g     F .text	00000026 Location
00001e00  w      .text	00000000 SW_Handler
200000b8 g     O .bss	00000002 Get_Motor3_Data
2000009c g     O .data	00000004 Ydata
00001e32  w      .text	00000000 TIM1_BRK_IRQHandler
00002344 g     F .text	0000000a USART_SendData
00001eae  w      .text	00000000 DMA2_Channel10_IRQHandler
00001e10  w      .text	00000000 EXTI1_IRQHandler
200000b0 g       .data	00000000 _edata
20000514 g       .bss	00000000 _end
0000087a g     F .text	00000066 OLED12864_SendByte
00001e54  w      .text	00000000 RTCAlarm_IRQHandler
00003744 g       .dlalign	00000000 _data_lma
00001ea0  w      .text	00000000 TIM10_UP_IRQHandler
00001e9a  w      .text	00000000 TIM9_TRG_COM_IRQHandler
0000183e g     F .text	00000036 UART7_IRQHandler
000007b6 g     F .text	00000028 OLED_SDA_OUT
0000146c g     F .text	00000112 USART2_IRQHandler
000017cc g     F .text	00000072 UART6_IRQHandler
0000272c g     F .text	000000ce .hidden __floatunsisf
00001e46  w      .text	00000000 I2C2_ER_IRQHandler
00001e1a  w      .text	00000000 DMA1_Channel2_IRQHandler
000036e8 g     O .text	00000020 __sf_fake_stdout
200000d4 g     O .bss	00000001 Usart6_Status
00002870 g     F .text	00000044 siprintf
00001e58  w      .text	00000000 TIM8_BRK_IRQHandler
00001eb2  w      .text	00000000 handle_reset
00001e2e  w      .text	00000000 CAN1_SCE_IRQHandler
000026d6 g     F .text	00000056 .hidden __fixunssfsi
00001e0a  w      .text	00000000 FLASH_IRQHandler
2000050c g     O .bss	00000002 Start
200000c0 g     O .bss	00000004 Usart2_buf
00001436 g     F .text	00000036 USART1_IRQHandler
200000eb g     O .bss	00000001 UsartData6
00000954 g     F .text	00000024 OLED12864_Location
00001e88  w      .text	00000000 OTG_FS_IRQHandler
00002dfa g     F .text	000002aa _printf_i
00001e68  w      .text	00000000 SPI3_IRQHandler
00000b0c g     F .text	00000026 ClearAllBuf
200000e0 g     O .bss	00000001 Usart8_Status
20000104 g     O .bss	00000004 __malloc_sbrk_start
00001e42  w      .text	00000000 I2C1_ER_IRQHandler
000009d0 g     F .text	00000078 Refresh
00002010 g     F .text	00000006 NVIC_PriorityGroupConfig
00000852 g     F .text	00000028 OLED_IIC_Ack
00000200 g     F .text	000000a6 USART1_Configuration
20000100 g     O .bss	00000004 __malloc_free_list
200000cc g     O .bss	00000001 Usart5_Index
200000f2 g     O .bss	00000002 Motor3_Current
200000b4 g     O .bss	00000002 Get_Motor1_Data
000023f2 g     F .text	0000002e Delayxms
00001e56  w      .text	00000000 USBWakeUp_IRQHandler
00001e76  w      .text	00000000 DMA2_Channel3_IRQHandler



Disassembly of section .init:

00000000 <_sinit>:
   0:	6b30106f          	j	1eb2 <handle_reset>
   4:	00000013          	nop
   8:	00000013          	nop
   c:	00000013          	nop
  10:	00000013          	nop
  14:	00000013          	nop
  18:	00000013          	nop
  1c:	00000013          	nop
  20:	00000013          	nop
  24:	00000013          	nop
  28:	00000013          	nop
  2c:	00000013          	nop
  30:	00000013          	nop
  34:	00100073          	ebreak

Disassembly of section .vector:

00000038 <_vector_base>:
	...
  40:	197a                	slli	s2,s2,0x3e
  42:	0000                	unimp
  44:	197e                	slli	s2,s2,0x3f
  46:	0000                	unimp
  48:	0000                	unimp
  4a:	0000                	unimp
  4c:	1df8                	addi	a4,sp,764
	...
  56:	0000                	unimp
  58:	1dfa                	slli	s11,s11,0x3e
  5a:	0000                	unimp
  5c:	1dfc                	addi	a5,sp,764
	...
  66:	0000                	unimp
  68:	1dfe                	slli	s11,s11,0x3f
  6a:	0000                	unimp
  6c:	0000                	unimp
  6e:	0000                	unimp
  70:	1e00                	addi	s0,sp,816
  72:	0000                	unimp
  74:	0000                	unimp
  76:	0000                	unimp
  78:	1e02                	slli	t3,t3,0x20
  7a:	0000                	unimp
  7c:	1e04                	addi	s1,sp,816
  7e:	0000                	unimp
  80:	1e06                	slli	t3,t3,0x21
  82:	0000                	unimp
  84:	1e08                	addi	a0,sp,816
  86:	0000                	unimp
  88:	1e0a                	slli	t3,t3,0x22
  8a:	0000                	unimp
  8c:	1e0c                	addi	a1,sp,816
  8e:	0000                	unimp
  90:	1e0e                	slli	t3,t3,0x23
  92:	0000                	unimp
  94:	1e10                	addi	a2,sp,816
  96:	0000                	unimp
  98:	1e12                	slli	t3,t3,0x24
  9a:	0000                	unimp
  9c:	1e14                	addi	a3,sp,816
  9e:	0000                	unimp
  a0:	1e16                	slli	t3,t3,0x25
  a2:	0000                	unimp
  a4:	1e18                	addi	a4,sp,816
  a6:	0000                	unimp
  a8:	1e1a                	slli	t3,t3,0x26
  aa:	0000                	unimp
  ac:	1e1c                	addi	a5,sp,816
  ae:	0000                	unimp
  b0:	1e1e                	slli	t3,t3,0x27
  b2:	0000                	unimp
  b4:	1e20                	addi	s0,sp,824
  b6:	0000                	unimp
  b8:	1e22                	slli	t3,t3,0x28
  ba:	0000                	unimp
  bc:	1e24                	addi	s1,sp,824
  be:	0000                	unimp
  c0:	1e26                	slli	t3,t3,0x29
  c2:	0000                	unimp
  c4:	1e28                	addi	a0,sp,824
  c6:	0000                	unimp
  c8:	1e2a                	slli	t3,t3,0x2a
  ca:	0000                	unimp
  cc:	1e2c                	addi	a1,sp,824
  ce:	0000                	unimp
  d0:	1e2e                	slli	t3,t3,0x2b
  d2:	0000                	unimp
  d4:	1e30                	addi	a2,sp,824
  d6:	0000                	unimp
  d8:	1e32                	slli	t3,t3,0x2c
  da:	0000                	unimp
  dc:	1e34                	addi	a3,sp,824
  de:	0000                	unimp
  e0:	1e36                	slli	t3,t3,0x2d
  e2:	0000                	unimp
  e4:	1e38                	addi	a4,sp,824
  e6:	0000                	unimp
  e8:	1e3a                	slli	t3,t3,0x2e
  ea:	0000                	unimp
  ec:	1e3c                	addi	a5,sp,824
  ee:	0000                	unimp
  f0:	1e3e                	slli	t3,t3,0x2f
  f2:	0000                	unimp
  f4:	1e40                	addi	s0,sp,820
  f6:	0000                	unimp
  f8:	1e42                	slli	t3,t3,0x30
  fa:	0000                	unimp
  fc:	1e44                	addi	s1,sp,820
  fe:	0000                	unimp
 100:	1e46                	slli	t3,t3,0x31
 102:	0000                	unimp
 104:	1e48                	addi	a0,sp,820
 106:	0000                	unimp
 108:	1e4a                	slli	t3,t3,0x32
 10a:	0000                	unimp
 10c:	1436                	slli	s0,s0,0x2d
 10e:	0000                	unimp
 110:	146c                	addi	a1,sp,556
 112:	0000                	unimp
 114:	157e                	slli	a0,a0,0x3f
 116:	0000                	unimp
 118:	1e52                	slli	t3,t3,0x34
 11a:	0000                	unimp
 11c:	1e54                	addi	a3,sp,820
 11e:	0000                	unimp
 120:	1e56                	slli	t3,t3,0x35
 122:	0000                	unimp
 124:	1e58                	addi	a4,sp,820
 126:	0000                	unimp
 128:	1e5a                	slli	t3,t3,0x36
 12a:	0000                	unimp
 12c:	1e5c                	addi	a5,sp,820
 12e:	0000                	unimp
 130:	1e5e                	slli	t3,t3,0x37
 132:	0000                	unimp
 134:	1e60                	addi	s0,sp,828
 136:	0000                	unimp
 138:	1e62                	slli	t3,t3,0x38
 13a:	0000                	unimp
 13c:	1e64                	addi	s1,sp,828
 13e:	0000                	unimp
 140:	1e66                	slli	t3,t3,0x39
 142:	0000                	unimp
 144:	1e68                	addi	a0,sp,828
 146:	0000                	unimp
 148:	15b4                	addi	a3,sp,744
 14a:	0000                	unimp
 14c:	16c6                	slli	a3,a3,0x31
 14e:	0000                	unimp
 150:	1e6e                	slli	t3,t3,0x3b
 152:	0000                	unimp
 154:	1e70                	addi	a2,sp,828
 156:	0000                	unimp
 158:	1e72                	slli	t3,t3,0x3c
 15a:	0000                	unimp
 15c:	1e74                	addi	a3,sp,828
 15e:	0000                	unimp
 160:	1e76                	slli	t3,t3,0x3d
 162:	0000                	unimp
 164:	1e78                	addi	a4,sp,828
 166:	0000                	unimp
 168:	1e7a                	slli	t3,t3,0x3e
 16a:	0000                	unimp
 16c:	1e7c                	addi	a5,sp,828
 16e:	0000                	unimp
 170:	1e7e                	slli	t3,t3,0x3f
 172:	0000                	unimp
 174:	1e80                	addi	s0,sp,880
 176:	0000                	unimp
 178:	1e82                	slli	t4,t4,0x20
 17a:	0000                	unimp
 17c:	1e84                	addi	s1,sp,880
 17e:	0000                	unimp
 180:	1e86                	slli	t4,t4,0x21
 182:	0000                	unimp
 184:	1e88                	addi	a0,sp,880
 186:	0000                	unimp
 188:	1e8a                	slli	t4,t4,0x22
 18a:	0000                	unimp
 18c:	1e8c                	addi	a1,sp,880
 18e:	0000                	unimp
 190:	1e8e                	slli	t4,t4,0x23
 192:	0000                	unimp
 194:	17cc                	addi	a1,sp,996
 196:	0000                	unimp
 198:	183e                	slli	a6,a6,0x2f
 19a:	0000                	unimp
 19c:	1874                	addi	a3,sp,60
 19e:	0000                	unimp
 1a0:	1e96                	slli	t4,t4,0x25
 1a2:	0000                	unimp
 1a4:	1e98                	addi	a4,sp,880
 1a6:	0000                	unimp
 1a8:	1e9a                	slli	t4,t4,0x26
 1aa:	0000                	unimp
 1ac:	1e9c                	addi	a5,sp,880
 1ae:	0000                	unimp
 1b0:	1e9e                	slli	t4,t4,0x27
 1b2:	0000                	unimp
 1b4:	1ea0                	addi	s0,sp,888
 1b6:	0000                	unimp
 1b8:	1ea2                	slli	t4,t4,0x28
 1ba:	0000                	unimp
 1bc:	1ea4                	addi	s1,sp,888
 1be:	0000                	unimp
 1c0:	1ea6                	slli	t4,t4,0x29
 1c2:	0000                	unimp
 1c4:	1ea8                	addi	a0,sp,888
 1c6:	0000                	unimp
 1c8:	1eaa                	slli	t4,t4,0x2a
 1ca:	0000                	unimp
 1cc:	1eac                	addi	a1,sp,888
 1ce:	0000                	unimp
 1d0:	1eae                	slli	t4,t4,0x2b
 1d2:	0000                	unimp
 1d4:	1eb0                	addi	a2,sp,888
	...

Disassembly of section .text:

00000200 <USART1_Configuration>:
     200:	7179                	addi	sp,sp,-48
     202:	4585                	li	a1,1
     204:	6511                	lui	a0,0x4
     206:	d606                	sw	ra,44(sp)
     208:	d422                	sw	s0,40(sp)
     20a:	c202                	sw	zero,4(sp)
     20c:	c402                	sw	zero,8(sp)
     20e:	c602                	sw	zero,12(sp)
     210:	c802                	sw	zero,16(sp)
     212:	ca02                	sw	zero,20(sp)
     214:	cc02                	sw	zero,24(sp)
     216:	ce02                	sw	zero,28(sp)
     218:	7c5010ef          	jal	ra,21dc <RCC_APB2PeriphClockCmd>
     21c:	4585                	li	a1,1
     21e:	4511                	li	a0,4
     220:	7bd010ef          	jal	ra,21dc <RCC_APB2PeriphClockCmd>
     224:	20000793          	li	a5,512
     228:	00f11223          	sh	a5,4(sp)
     22c:	40011437          	lui	s0,0x40011
     230:	47e1                	li	a5,24
     232:	c63e                	sw	a5,12(sp)
     234:	004c                	addi	a1,sp,4
     236:	478d                	li	a5,3
     238:	80040513          	addi	a0,s0,-2048 # 40010800 <_eusrstack+0x20008800>
     23c:	c43e                	sw	a5,8(sp)
     23e:	4ff010ef          	jal	ra,1f3c <GPIO_Init>
     242:	40000793          	li	a5,1024
     246:	00f11223          	sh	a5,4(sp)
     24a:	004c                	addi	a1,sp,4
     24c:	4791                	li	a5,4
     24e:	80040513          	addi	a0,s0,-2048
     252:	c63e                	sw	a5,12(sp)
     254:	4e9010ef          	jal	ra,1f3c <GPIO_Init>
     258:	67f1                	lui	a5,0x1c
     25a:	40014437          	lui	s0,0x40014
     25e:	20078793          	addi	a5,a5,512 # 1c200 <_data_lma+0x18abc>
     262:	c83e                	sw	a5,16(sp)
     264:	080c                	addi	a1,sp,16
     266:	000c07b7          	lui	a5,0xc0
     26a:	80040513          	addi	a0,s0,-2048 # 40013800 <_eusrstack+0x2000b800>
     26e:	cc3e                	sw	a5,24(sp)
     270:	ca02                	sw	zero,20(sp)
     272:	00011e23          	sh	zero,28(sp)
     276:	7a3010ef          	jal	ra,2218 <USART_Init>
     27a:	4605                	li	a2,1
     27c:	80040513          	addi	a0,s0,-2048
     280:	52500593          	li	a1,1317
     284:	08a020ef          	jal	ra,230e <USART_ITConfig>
     288:	80040513          	addi	a0,s0,-2048
     28c:	4585                	li	a1,1
     28e:	064020ef          	jal	ra,22f2 <USART_Cmd>
     292:	80040513          	addi	a0,s0,-2048
     296:	04000593          	li	a1,64
     29a:	0ca020ef          	jal	ra,2364 <USART_ClearFlag>
     29e:	50b2                	lw	ra,44(sp)
     2a0:	5422                	lw	s0,40(sp)
     2a2:	6145                	addi	sp,sp,48
     2a4:	8082                	ret

000002a6 <USART2_Configuration>:
     2a6:	7179                	addi	sp,sp,-48
     2a8:	4585                	li	a1,1
     2aa:	00020537          	lui	a0,0x20
     2ae:	d606                	sw	ra,44(sp)
     2b0:	d422                	sw	s0,40(sp)
     2b2:	d226                	sw	s1,36(sp)
     2b4:	c202                	sw	zero,4(sp)
     2b6:	c402                	sw	zero,8(sp)
     2b8:	c602                	sw	zero,12(sp)
     2ba:	c802                	sw	zero,16(sp)
     2bc:	ca02                	sw	zero,20(sp)
     2be:	cc02                	sw	zero,24(sp)
     2c0:	ce02                	sw	zero,28(sp)
     2c2:	739010ef          	jal	ra,21fa <RCC_APB1PeriphClockCmd>
     2c6:	4585                	li	a1,1
     2c8:	4511                	li	a0,4
     2ca:	713010ef          	jal	ra,21dc <RCC_APB2PeriphClockCmd>
     2ce:	40011437          	lui	s0,0x40011
     2d2:	4791                	li	a5,4
     2d4:	00f11223          	sh	a5,4(sp)
     2d8:	448d                	li	s1,3
     2da:	47e1                	li	a5,24
     2dc:	004c                	addi	a1,sp,4
     2de:	80040513          	addi	a0,s0,-2048 # 40010800 <_eusrstack+0x20008800>
     2e2:	c63e                	sw	a5,12(sp)
     2e4:	c426                	sw	s1,8(sp)
     2e6:	457010ef          	jal	ra,1f3c <GPIO_Init>
     2ea:	47a1                	li	a5,8
     2ec:	00f11223          	sh	a5,4(sp)
     2f0:	004c                	addi	a1,sp,4
     2f2:	4791                	li	a5,4
     2f4:	80040513          	addi	a0,s0,-2048
     2f8:	c63e                	sw	a5,12(sp)
     2fa:	c426                	sw	s1,8(sp)
     2fc:	441010ef          	jal	ra,1f3c <GPIO_Init>
     300:	67f1                	lui	a5,0x1c
     302:	40004437          	lui	s0,0x40004
     306:	20078793          	addi	a5,a5,512 # 1c200 <_data_lma+0x18abc>
     30a:	c83e                	sw	a5,16(sp)
     30c:	080c                	addi	a1,sp,16
     30e:	000c07b7          	lui	a5,0xc0
     312:	40040513          	addi	a0,s0,1024 # 40004400 <_eusrstack+0x1fffc400>
     316:	cc3e                	sw	a5,24(sp)
     318:	ca02                	sw	zero,20(sp)
     31a:	00011e23          	sh	zero,28(sp)
     31e:	6fb010ef          	jal	ra,2218 <USART_Init>
     322:	4605                	li	a2,1
     324:	40040513          	addi	a0,s0,1024
     328:	52500593          	li	a1,1317
     32c:	7e3010ef          	jal	ra,230e <USART_ITConfig>
     330:	40040513          	addi	a0,s0,1024
     334:	4585                	li	a1,1
     336:	7bd010ef          	jal	ra,22f2 <USART_Cmd>
     33a:	40040513          	addi	a0,s0,1024
     33e:	04000593          	li	a1,64
     342:	022020ef          	jal	ra,2364 <USART_ClearFlag>
     346:	50b2                	lw	ra,44(sp)
     348:	5422                	lw	s0,40(sp)
     34a:	5492                	lw	s1,36(sp)
     34c:	6145                	addi	sp,sp,48
     34e:	8082                	ret

00000350 <USART3_Configuration>:
     350:	7179                	addi	sp,sp,-48
     352:	4585                	li	a1,1
     354:	00040537          	lui	a0,0x40
     358:	d606                	sw	ra,44(sp)
     35a:	d422                	sw	s0,40(sp)
     35c:	d226                	sw	s1,36(sp)
     35e:	c202                	sw	zero,4(sp)
     360:	c402                	sw	zero,8(sp)
     362:	c602                	sw	zero,12(sp)
     364:	c802                	sw	zero,16(sp)
     366:	ca02                	sw	zero,20(sp)
     368:	cc02                	sw	zero,24(sp)
     36a:	ce02                	sw	zero,28(sp)
     36c:	68f010ef          	jal	ra,21fa <RCC_APB1PeriphClockCmd>
     370:	4585                	li	a1,1
     372:	4521                	li	a0,8
     374:	669010ef          	jal	ra,21dc <RCC_APB2PeriphClockCmd>
     378:	40011437          	lui	s0,0x40011
     37c:	40000793          	li	a5,1024
     380:	00f11223          	sh	a5,4(sp)
     384:	448d                	li	s1,3
     386:	47e1                	li	a5,24
     388:	004c                	addi	a1,sp,4
     38a:	c0040513          	addi	a0,s0,-1024 # 40010c00 <_eusrstack+0x20008c00>
     38e:	c63e                	sw	a5,12(sp)
     390:	c426                	sw	s1,8(sp)
     392:	3ab010ef          	jal	ra,1f3c <GPIO_Init>
     396:	6785                	lui	a5,0x1
     398:	80078793          	addi	a5,a5,-2048 # 800 <__stack_size>
     39c:	00f11223          	sh	a5,4(sp)
     3a0:	004c                	addi	a1,sp,4
     3a2:	4791                	li	a5,4
     3a4:	c0040513          	addi	a0,s0,-1024
     3a8:	c63e                	sw	a5,12(sp)
     3aa:	c426                	sw	s1,8(sp)
     3ac:	391010ef          	jal	ra,1f3c <GPIO_Init>
     3b0:	67f1                	lui	a5,0x1c
     3b2:	40005437          	lui	s0,0x40005
     3b6:	20078793          	addi	a5,a5,512 # 1c200 <_data_lma+0x18abc>
     3ba:	c83e                	sw	a5,16(sp)
     3bc:	080c                	addi	a1,sp,16
     3be:	000c07b7          	lui	a5,0xc0
     3c2:	80040513          	addi	a0,s0,-2048 # 40004800 <_eusrstack+0x1fffc800>
     3c6:	cc3e                	sw	a5,24(sp)
     3c8:	ca02                	sw	zero,20(sp)
     3ca:	00011e23          	sh	zero,28(sp)
     3ce:	64b010ef          	jal	ra,2218 <USART_Init>
     3d2:	4605                	li	a2,1
     3d4:	80040513          	addi	a0,s0,-2048
     3d8:	52500593          	li	a1,1317
     3dc:	733010ef          	jal	ra,230e <USART_ITConfig>
     3e0:	80040513          	addi	a0,s0,-2048
     3e4:	4585                	li	a1,1
     3e6:	70d010ef          	jal	ra,22f2 <USART_Cmd>
     3ea:	80040513          	addi	a0,s0,-2048
     3ee:	04000593          	li	a1,64
     3f2:	773010ef          	jal	ra,2364 <USART_ClearFlag>
     3f6:	50b2                	lw	ra,44(sp)
     3f8:	5422                	lw	s0,40(sp)
     3fa:	5492                	lw	s1,36(sp)
     3fc:	6145                	addi	sp,sp,48
     3fe:	8082                	ret

00000400 <USART4_Configuration>:
     400:	7179                	addi	sp,sp,-48
     402:	4585                	li	a1,1
     404:	00080537          	lui	a0,0x80
     408:	d606                	sw	ra,44(sp)
     40a:	d422                	sw	s0,40(sp)
     40c:	c202                	sw	zero,4(sp)
     40e:	c402                	sw	zero,8(sp)
     410:	c602                	sw	zero,12(sp)
     412:	c802                	sw	zero,16(sp)
     414:	ca02                	sw	zero,20(sp)
     416:	cc02                	sw	zero,24(sp)
     418:	ce02                	sw	zero,28(sp)
     41a:	5e1010ef          	jal	ra,21fa <RCC_APB1PeriphClockCmd>
     41e:	4585                	li	a1,1
     420:	4541                	li	a0,16
     422:	5bb010ef          	jal	ra,21dc <RCC_APB2PeriphClockCmd>
     426:	40000793          	li	a5,1024
     42a:	00f11223          	sh	a5,4(sp)
     42e:	440d                	li	s0,3
     430:	47e1                	li	a5,24
     432:	004c                	addi	a1,sp,4
     434:	40011537          	lui	a0,0x40011
     438:	c63e                	sw	a5,12(sp)
     43a:	c422                	sw	s0,8(sp)
     43c:	301010ef          	jal	ra,1f3c <GPIO_Init>
     440:	6785                	lui	a5,0x1
     442:	80078793          	addi	a5,a5,-2048 # 800 <__stack_size>
     446:	00f11223          	sh	a5,4(sp)
     44a:	004c                	addi	a1,sp,4
     44c:	4791                	li	a5,4
     44e:	40011537          	lui	a0,0x40011
     452:	c63e                	sw	a5,12(sp)
     454:	c422                	sw	s0,8(sp)
     456:	2e7010ef          	jal	ra,1f3c <GPIO_Init>
     45a:	67f1                	lui	a5,0x1c
     45c:	40005437          	lui	s0,0x40005
     460:	20078793          	addi	a5,a5,512 # 1c200 <_data_lma+0x18abc>
     464:	c83e                	sw	a5,16(sp)
     466:	080c                	addi	a1,sp,16
     468:	000c07b7          	lui	a5,0xc0
     46c:	c0040513          	addi	a0,s0,-1024 # 40004c00 <_eusrstack+0x1fffcc00>
     470:	cc3e                	sw	a5,24(sp)
     472:	ca02                	sw	zero,20(sp)
     474:	00011e23          	sh	zero,28(sp)
     478:	5a1010ef          	jal	ra,2218 <USART_Init>
     47c:	4605                	li	a2,1
     47e:	c0040513          	addi	a0,s0,-1024
     482:	52500593          	li	a1,1317
     486:	689010ef          	jal	ra,230e <USART_ITConfig>
     48a:	c0040513          	addi	a0,s0,-1024
     48e:	4585                	li	a1,1
     490:	663010ef          	jal	ra,22f2 <USART_Cmd>
     494:	c0040513          	addi	a0,s0,-1024
     498:	04000593          	li	a1,64
     49c:	6c9010ef          	jal	ra,2364 <USART_ClearFlag>
     4a0:	50b2                	lw	ra,44(sp)
     4a2:	5422                	lw	s0,40(sp)
     4a4:	6145                	addi	sp,sp,48
     4a6:	8082                	ret

000004a8 <USART5_Configuration>:
     4a8:	7179                	addi	sp,sp,-48
     4aa:	4585                	li	a1,1
     4ac:	00100537          	lui	a0,0x100
     4b0:	d606                	sw	ra,44(sp)
     4b2:	d422                	sw	s0,40(sp)
     4b4:	c202                	sw	zero,4(sp)
     4b6:	c402                	sw	zero,8(sp)
     4b8:	c602                	sw	zero,12(sp)
     4ba:	c802                	sw	zero,16(sp)
     4bc:	ca02                	sw	zero,20(sp)
     4be:	cc02                	sw	zero,24(sp)
     4c0:	ce02                	sw	zero,28(sp)
     4c2:	539010ef          	jal	ra,21fa <RCC_APB1PeriphClockCmd>
     4c6:	4585                	li	a1,1
     4c8:	4541                	li	a0,16
     4ca:	513010ef          	jal	ra,21dc <RCC_APB2PeriphClockCmd>
     4ce:	4585                	li	a1,1
     4d0:	02000513          	li	a0,32
     4d4:	509010ef          	jal	ra,21dc <RCC_APB2PeriphClockCmd>
     4d8:	6785                	lui	a5,0x1
     4da:	00f11223          	sh	a5,4(sp)
     4de:	440d                	li	s0,3
     4e0:	47e1                	li	a5,24
     4e2:	004c                	addi	a1,sp,4
     4e4:	40011537          	lui	a0,0x40011
     4e8:	c63e                	sw	a5,12(sp)
     4ea:	c422                	sw	s0,8(sp)
     4ec:	251010ef          	jal	ra,1f3c <GPIO_Init>
     4f0:	4791                	li	a5,4
     4f2:	40011537          	lui	a0,0x40011
     4f6:	00f11223          	sh	a5,4(sp)
     4fa:	004c                	addi	a1,sp,4
     4fc:	4791                	li	a5,4
     4fe:	40050513          	addi	a0,a0,1024 # 40011400 <_eusrstack+0x20009400>
     502:	c63e                	sw	a5,12(sp)
     504:	c422                	sw	s0,8(sp)
     506:	237010ef          	jal	ra,1f3c <GPIO_Init>
     50a:	67f1                	lui	a5,0x1c
     50c:	20078793          	addi	a5,a5,512 # 1c200 <_data_lma+0x18abc>
     510:	c83e                	sw	a5,16(sp)
     512:	080c                	addi	a1,sp,16
     514:	000c07b7          	lui	a5,0xc0
     518:	40005537          	lui	a0,0x40005
     51c:	cc3e                	sw	a5,24(sp)
     51e:	ca02                	sw	zero,20(sp)
     520:	00011e23          	sh	zero,28(sp)
     524:	4f5010ef          	jal	ra,2218 <USART_Init>
     528:	4605                	li	a2,1
     52a:	52500593          	li	a1,1317
     52e:	40005537          	lui	a0,0x40005
     532:	5dd010ef          	jal	ra,230e <USART_ITConfig>
     536:	4585                	li	a1,1
     538:	40005537          	lui	a0,0x40005
     53c:	5b7010ef          	jal	ra,22f2 <USART_Cmd>
     540:	40002537          	lui	a0,0x40002
     544:	04000593          	li	a1,64
     548:	80050513          	addi	a0,a0,-2048 # 40001800 <_eusrstack+0x1fff9800>
     54c:	619010ef          	jal	ra,2364 <USART_ClearFlag>
     550:	50b2                	lw	ra,44(sp)
     552:	5422                	lw	s0,40(sp)
     554:	6145                	addi	sp,sp,48
     556:	8082                	ret

00000558 <USART6_Configuration>:
     558:	7179                	addi	sp,sp,-48
     55a:	4585                	li	a1,1
     55c:	04000513          	li	a0,64
     560:	d606                	sw	ra,44(sp)
     562:	d422                	sw	s0,40(sp)
     564:	c202                	sw	zero,4(sp)
     566:	c402                	sw	zero,8(sp)
     568:	c602                	sw	zero,12(sp)
     56a:	c802                	sw	zero,16(sp)
     56c:	ca02                	sw	zero,20(sp)
     56e:	cc02                	sw	zero,24(sp)
     570:	ce02                	sw	zero,28(sp)
     572:	489010ef          	jal	ra,21fa <RCC_APB1PeriphClockCmd>
     576:	4585                	li	a1,1
     578:	4541                	li	a0,16
     57a:	463010ef          	jal	ra,21dc <RCC_APB2PeriphClockCmd>
     57e:	4785                	li	a5,1
     580:	00f11223          	sh	a5,4(sp)
     584:	440d                	li	s0,3
     586:	47e1                	li	a5,24
     588:	004c                	addi	a1,sp,4
     58a:	40011537          	lui	a0,0x40011
     58e:	c63e                	sw	a5,12(sp)
     590:	c422                	sw	s0,8(sp)
     592:	1ab010ef          	jal	ra,1f3c <GPIO_Init>
     596:	4789                	li	a5,2
     598:	00f11223          	sh	a5,4(sp)
     59c:	004c                	addi	a1,sp,4
     59e:	4791                	li	a5,4
     5a0:	40011537          	lui	a0,0x40011
     5a4:	c63e                	sw	a5,12(sp)
     5a6:	c422                	sw	s0,8(sp)
     5a8:	195010ef          	jal	ra,1f3c <GPIO_Init>
     5ac:	67f1                	lui	a5,0x1c
     5ae:	40002437          	lui	s0,0x40002
     5b2:	20078793          	addi	a5,a5,512 # 1c200 <_data_lma+0x18abc>
     5b6:	c83e                	sw	a5,16(sp)
     5b8:	080c                	addi	a1,sp,16
     5ba:	000c07b7          	lui	a5,0xc0
     5be:	80040513          	addi	a0,s0,-2048 # 40001800 <_eusrstack+0x1fff9800>
     5c2:	cc3e                	sw	a5,24(sp)
     5c4:	ca02                	sw	zero,20(sp)
     5c6:	00011e23          	sh	zero,28(sp)
     5ca:	44f010ef          	jal	ra,2218 <USART_Init>
     5ce:	4605                	li	a2,1
     5d0:	80040513          	addi	a0,s0,-2048
     5d4:	52500593          	li	a1,1317
     5d8:	537010ef          	jal	ra,230e <USART_ITConfig>
     5dc:	80040513          	addi	a0,s0,-2048
     5e0:	4585                	li	a1,1
     5e2:	511010ef          	jal	ra,22f2 <USART_Cmd>
     5e6:	80040513          	addi	a0,s0,-2048
     5ea:	04000593          	li	a1,64
     5ee:	577010ef          	jal	ra,2364 <USART_ClearFlag>
     5f2:	50b2                	lw	ra,44(sp)
     5f4:	5422                	lw	s0,40(sp)
     5f6:	6145                	addi	sp,sp,48
     5f8:	8082                	ret

000005fa <USART7_Configuration>:
     5fa:	7179                	addi	sp,sp,-48
     5fc:	4585                	li	a1,1
     5fe:	08000513          	li	a0,128
     602:	d606                	sw	ra,44(sp)
     604:	d422                	sw	s0,40(sp)
     606:	c202                	sw	zero,4(sp)
     608:	c402                	sw	zero,8(sp)
     60a:	c602                	sw	zero,12(sp)
     60c:	c802                	sw	zero,16(sp)
     60e:	ca02                	sw	zero,20(sp)
     610:	cc02                	sw	zero,24(sp)
     612:	ce02                	sw	zero,28(sp)
     614:	3e7010ef          	jal	ra,21fa <RCC_APB1PeriphClockCmd>
     618:	4585                	li	a1,1
     61a:	4541                	li	a0,16
     61c:	3c1010ef          	jal	ra,21dc <RCC_APB2PeriphClockCmd>
     620:	4791                	li	a5,4
     622:	00f11223          	sh	a5,4(sp)
     626:	440d                	li	s0,3
     628:	47e1                	li	a5,24
     62a:	004c                	addi	a1,sp,4
     62c:	40011537          	lui	a0,0x40011
     630:	c63e                	sw	a5,12(sp)
     632:	c422                	sw	s0,8(sp)
     634:	109010ef          	jal	ra,1f3c <GPIO_Init>
     638:	47a1                	li	a5,8
     63a:	00f11223          	sh	a5,4(sp)
     63e:	004c                	addi	a1,sp,4
     640:	4791                	li	a5,4
     642:	40011537          	lui	a0,0x40011
     646:	c63e                	sw	a5,12(sp)
     648:	c422                	sw	s0,8(sp)
     64a:	0f3010ef          	jal	ra,1f3c <GPIO_Init>
     64e:	67f1                	lui	a5,0x1c
     650:	40002437          	lui	s0,0x40002
     654:	20078793          	addi	a5,a5,512 # 1c200 <_data_lma+0x18abc>
     658:	c83e                	sw	a5,16(sp)
     65a:	080c                	addi	a1,sp,16
     65c:	000c07b7          	lui	a5,0xc0
     660:	c0040513          	addi	a0,s0,-1024 # 40001c00 <_eusrstack+0x1fff9c00>
     664:	cc3e                	sw	a5,24(sp)
     666:	ca02                	sw	zero,20(sp)
     668:	00011e23          	sh	zero,28(sp)
     66c:	3ad010ef          	jal	ra,2218 <USART_Init>
     670:	4605                	li	a2,1
     672:	c0040513          	addi	a0,s0,-1024
     676:	52500593          	li	a1,1317
     67a:	495010ef          	jal	ra,230e <USART_ITConfig>
     67e:	c0040513          	addi	a0,s0,-1024
     682:	4585                	li	a1,1
     684:	46f010ef          	jal	ra,22f2 <USART_Cmd>
     688:	c0040513          	addi	a0,s0,-1024
     68c:	04000593          	li	a1,64
     690:	4d5010ef          	jal	ra,2364 <USART_ClearFlag>
     694:	50b2                	lw	ra,44(sp)
     696:	5422                	lw	s0,40(sp)
     698:	6145                	addi	sp,sp,48
     69a:	8082                	ret

0000069c <USART8_Configuration>:
     69c:	7179                	addi	sp,sp,-48
     69e:	4585                	li	a1,1
     6a0:	10000513          	li	a0,256
     6a4:	d606                	sw	ra,44(sp)
     6a6:	d422                	sw	s0,40(sp)
     6a8:	c202                	sw	zero,4(sp)
     6aa:	c402                	sw	zero,8(sp)
     6ac:	c602                	sw	zero,12(sp)
     6ae:	c802                	sw	zero,16(sp)
     6b0:	ca02                	sw	zero,20(sp)
     6b2:	cc02                	sw	zero,24(sp)
     6b4:	ce02                	sw	zero,28(sp)
     6b6:	345010ef          	jal	ra,21fa <RCC_APB1PeriphClockCmd>
     6ba:	4585                	li	a1,1
     6bc:	4541                	li	a0,16
     6be:	31f010ef          	jal	ra,21dc <RCC_APB2PeriphClockCmd>
     6c2:	47c1                	li	a5,16
     6c4:	00f11223          	sh	a5,4(sp)
     6c8:	440d                	li	s0,3
     6ca:	47e1                	li	a5,24
     6cc:	004c                	addi	a1,sp,4
     6ce:	40011537          	lui	a0,0x40011
     6d2:	c63e                	sw	a5,12(sp)
     6d4:	c422                	sw	s0,8(sp)
     6d6:	067010ef          	jal	ra,1f3c <GPIO_Init>
     6da:	02000793          	li	a5,32
     6de:	00f11223          	sh	a5,4(sp)
     6e2:	004c                	addi	a1,sp,4
     6e4:	4791                	li	a5,4
     6e6:	40011537          	lui	a0,0x40011
     6ea:	c63e                	sw	a5,12(sp)
     6ec:	c422                	sw	s0,8(sp)
     6ee:	04f010ef          	jal	ra,1f3c <GPIO_Init>
     6f2:	67f1                	lui	a5,0x1c
     6f4:	20078793          	addi	a5,a5,512 # 1c200 <_data_lma+0x18abc>
     6f8:	c83e                	sw	a5,16(sp)
     6fa:	080c                	addi	a1,sp,16
     6fc:	000c07b7          	lui	a5,0xc0
     700:	40002537          	lui	a0,0x40002
     704:	cc3e                	sw	a5,24(sp)
     706:	ca02                	sw	zero,20(sp)
     708:	00011e23          	sh	zero,28(sp)
     70c:	30d010ef          	jal	ra,2218 <USART_Init>
     710:	4605                	li	a2,1
     712:	52500593          	li	a1,1317
     716:	40002537          	lui	a0,0x40002
     71a:	3f5010ef          	jal	ra,230e <USART_ITConfig>
     71e:	4585                	li	a1,1
     720:	40002537          	lui	a0,0x40002
     724:	3cf010ef          	jal	ra,22f2 <USART_Cmd>
     728:	04000593          	li	a1,64
     72c:	40002537          	lui	a0,0x40002
     730:	435010ef          	jal	ra,2364 <USART_ClearFlag>
     734:	50b2                	lw	ra,44(sp)
     736:	5422                	lw	s0,40(sp)
     738:	6145                	addi	sp,sp,48
     73a:	8082                	ret

0000073c <USARTx_SendByte>:
     73c:	1141                	addi	sp,sp,-16
     73e:	c422                	sw	s0,8(sp)
     740:	c606                	sw	ra,12(sp)
     742:	842a                	mv	s0,a0
     744:	401010ef          	jal	ra,2344 <USART_SendData>
     748:	04000593          	li	a1,64
     74c:	8522                	mv	a0,s0
     74e:	40b010ef          	jal	ra,2358 <USART_GetFlagStatus>
     752:	d97d                	beqz	a0,748 <USARTx_SendByte+0xc>
     754:	40b2                	lw	ra,12(sp)
     756:	4422                	lw	s0,8(sp)
     758:	0141                	addi	sp,sp,16
     75a:	8082                	ret

0000075c <OLED12864_IoInit>:
     75c:	1101                	addi	sp,sp,-32
     75e:	4585                	li	a1,1
     760:	4521                	li	a0,8
     762:	ce06                	sw	ra,28(sp)
     764:	cc22                	sw	s0,24(sp)
     766:	c202                	sw	zero,4(sp)
     768:	c402                	sw	zero,8(sp)
     76a:	c602                	sw	zero,12(sp)
     76c:	271010ef          	jal	ra,21dc <RCC_APB2PeriphClockCmd>
     770:	4585                	li	a1,1
     772:	4521                	li	a0,8
     774:	269010ef          	jal	ra,21dc <RCC_APB2PeriphClockCmd>
     778:	40011437          	lui	s0,0x40011
     77c:	10000793          	li	a5,256
     780:	00f11223          	sh	a5,4(sp)
     784:	004c                	addi	a1,sp,4
     786:	04800793          	li	a5,72
     78a:	c0040513          	addi	a0,s0,-1024 # 40010c00 <_eusrstack+0x20008c00>
     78e:	c63e                	sw	a5,12(sp)
     790:	7ac010ef          	jal	ra,1f3c <GPIO_Init>
     794:	20000793          	li	a5,512
     798:	00f11223          	sh	a5,4(sp)
     79c:	47c1                	li	a5,16
     79e:	c63e                	sw	a5,12(sp)
     7a0:	004c                	addi	a1,sp,4
     7a2:	478d                	li	a5,3
     7a4:	c0040513          	addi	a0,s0,-1024
     7a8:	c43e                	sw	a5,8(sp)
     7aa:	792010ef          	jal	ra,1f3c <GPIO_Init>
     7ae:	40f2                	lw	ra,28(sp)
     7b0:	4462                	lw	s0,24(sp)
     7b2:	6105                	addi	sp,sp,32
     7b4:	8082                	ret

000007b6 <OLED_SDA_OUT>:
     7b6:	1101                	addi	sp,sp,-32
     7b8:	10000793          	li	a5,256
     7bc:	00f11223          	sh	a5,4(sp)
     7c0:	40011537          	lui	a0,0x40011
     7c4:	47c1                	li	a5,16
     7c6:	c63e                	sw	a5,12(sp)
     7c8:	004c                	addi	a1,sp,4
     7ca:	478d                	li	a5,3
     7cc:	c0050513          	addi	a0,a0,-1024 # 40010c00 <_eusrstack+0x20008c00>
     7d0:	ce06                	sw	ra,28(sp)
     7d2:	c43e                	sw	a5,8(sp)
     7d4:	768010ef          	jal	ra,1f3c <GPIO_Init>
     7d8:	40f2                	lw	ra,28(sp)
     7da:	6105                	addi	sp,sp,32
     7dc:	8082                	ret

000007de <OLED_IIC_Start>:
     7de:	1141                	addi	sp,sp,-16
     7e0:	c422                	sw	s0,8(sp)
     7e2:	40011437          	lui	s0,0x40011
     7e6:	c0040513          	addi	a0,s0,-1024 # 40010c00 <_eusrstack+0x20008c00>
     7ea:	20000593          	li	a1,512
     7ee:	c606                	sw	ra,12(sp)
     7f0:	019010ef          	jal	ra,2008 <GPIO_SetBits>
     7f4:	c0040513          	addi	a0,s0,-1024
     7f8:	10000593          	li	a1,256
     7fc:	00d010ef          	jal	ra,2008 <GPIO_SetBits>
     800:	c0040513          	addi	a0,s0,-1024
     804:	10000593          	li	a1,256
     808:	005010ef          	jal	ra,200c <GPIO_ResetBits>
     80c:	c0040513          	addi	a0,s0,-1024
     810:	4422                	lw	s0,8(sp)
     812:	40b2                	lw	ra,12(sp)
     814:	20000593          	li	a1,512
     818:	0141                	addi	sp,sp,16
     81a:	7f20106f          	j	200c <GPIO_ResetBits>

0000081e <OLED_IIC_Stop>:
     81e:	1141                	addi	sp,sp,-16
     820:	c422                	sw	s0,8(sp)
     822:	40011437          	lui	s0,0x40011
     826:	c0040513          	addi	a0,s0,-1024 # 40010c00 <_eusrstack+0x20008c00>
     82a:	20000593          	li	a1,512
     82e:	c606                	sw	ra,12(sp)
     830:	7d8010ef          	jal	ra,2008 <GPIO_SetBits>
     834:	c0040513          	addi	a0,s0,-1024
     838:	10000593          	li	a1,256
     83c:	7d0010ef          	jal	ra,200c <GPIO_ResetBits>
     840:	c0040513          	addi	a0,s0,-1024
     844:	4422                	lw	s0,8(sp)
     846:	40b2                	lw	ra,12(sp)
     848:	10000593          	li	a1,256
     84c:	0141                	addi	sp,sp,16
     84e:	7ba0106f          	j	2008 <GPIO_SetBits>

00000852 <OLED_IIC_Ack>:
     852:	1141                	addi	sp,sp,-16
     854:	c422                	sw	s0,8(sp)
     856:	40011437          	lui	s0,0x40011
     85a:	c0040513          	addi	a0,s0,-1024 # 40010c00 <_eusrstack+0x20008c00>
     85e:	20000593          	li	a1,512
     862:	c606                	sw	ra,12(sp)
     864:	7a4010ef          	jal	ra,2008 <GPIO_SetBits>
     868:	c0040513          	addi	a0,s0,-1024
     86c:	4422                	lw	s0,8(sp)
     86e:	40b2                	lw	ra,12(sp)
     870:	20000593          	li	a1,512
     874:	0141                	addi	sp,sp,16
     876:	7960106f          	j	200c <GPIO_ResetBits>

0000087a <OLED12864_SendByte>:
     87a:	1101                	addi	sp,sp,-32
     87c:	cc22                	sw	s0,24(sp)
     87e:	ca26                	sw	s1,20(sp)
     880:	c62a                	sw	a0,12(sp)
     882:	ce06                	sw	ra,28(sp)
     884:	c84a                	sw	s2,16(sp)
     886:	3f05                	jal	7b6 <OLED_SDA_OUT>
     888:	4532                	lw	a0,12(sp)
     88a:	40011437          	lui	s0,0x40011
     88e:	44a1                	li	s1,8
     890:	c0040413          	addi	s0,s0,-1024 # 40010c00 <_eusrstack+0x20008c00>
     894:	00151913          	slli	s2,a0,0x1
     898:	0562                	slli	a0,a0,0x18
     89a:	8561                	srai	a0,a0,0x18
     89c:	0ff97913          	andi	s2,s2,255
     8a0:	10000593          	li	a1,256
     8a4:	02055a63          	bgez	a0,8d8 <OLED12864_SendByte+0x5e>
     8a8:	8522                	mv	a0,s0
     8aa:	75e010ef          	jal	ra,2008 <GPIO_SetBits>
     8ae:	20000593          	li	a1,512
     8b2:	8522                	mv	a0,s0
     8b4:	754010ef          	jal	ra,2008 <GPIO_SetBits>
     8b8:	8522                	mv	a0,s0
     8ba:	20000593          	li	a1,512
     8be:	14fd                	addi	s1,s1,-1
     8c0:	74c010ef          	jal	ra,200c <GPIO_ResetBits>
     8c4:	0ff4f493          	andi	s1,s1,255
     8c8:	854a                	mv	a0,s2
     8ca:	f4e9                	bnez	s1,894 <OLED12864_SendByte+0x1a>
     8cc:	40f2                	lw	ra,28(sp)
     8ce:	4462                	lw	s0,24(sp)
     8d0:	44d2                	lw	s1,20(sp)
     8d2:	4942                	lw	s2,16(sp)
     8d4:	6105                	addi	sp,sp,32
     8d6:	8082                	ret
     8d8:	8522                	mv	a0,s0
     8da:	732010ef          	jal	ra,200c <GPIO_ResetBits>
     8de:	bfc1                	j	8ae <OLED12864_SendByte+0x34>

000008e0 <OLED12864_SendCom>:
     8e0:	1141                	addi	sp,sp,-16
     8e2:	c606                	sw	ra,12(sp)
     8e4:	c422                	sw	s0,8(sp)
     8e6:	842a                	mv	s0,a0
     8e8:	3ddd                	jal	7de <OLED_IIC_Start>
     8ea:	07800513          	li	a0,120
     8ee:	3771                	jal	87a <OLED12864_SendByte>
     8f0:	378d                	jal	852 <OLED_IIC_Ack>
     8f2:	4501                	li	a0,0
     8f4:	3759                	jal	87a <OLED12864_SendByte>
     8f6:	3fb1                	jal	852 <OLED_IIC_Ack>
     8f8:	8522                	mv	a0,s0
     8fa:	3741                	jal	87a <OLED12864_SendByte>
     8fc:	3f99                	jal	852 <OLED_IIC_Ack>
     8fe:	4422                	lw	s0,8(sp)
     900:	40b2                	lw	ra,12(sp)
     902:	0141                	addi	sp,sp,16
     904:	bf29                	j	81e <OLED_IIC_Stop>

00000906 <OLED12864_SendData>:
     906:	1141                	addi	sp,sp,-16
     908:	c606                	sw	ra,12(sp)
     90a:	c422                	sw	s0,8(sp)
     90c:	842a                	mv	s0,a0
     90e:	3dc1                	jal	7de <OLED_IIC_Start>
     910:	07800513          	li	a0,120
     914:	379d                	jal	87a <OLED12864_SendByte>
     916:	3f35                	jal	852 <OLED_IIC_Ack>
     918:	04000513          	li	a0,64
     91c:	3fb9                	jal	87a <OLED12864_SendByte>
     91e:	3f15                	jal	852 <OLED_IIC_Ack>
     920:	8522                	mv	a0,s0
     922:	3fa1                	jal	87a <OLED12864_SendByte>
     924:	373d                	jal	852 <OLED_IIC_Ack>
     926:	4422                	lw	s0,8(sp)
     928:	40b2                	lw	ra,12(sp)
     92a:	0141                	addi	sp,sp,16
     92c:	bdcd                	j	81e <OLED_IIC_Stop>

0000092e <Location>:
     92e:	1141                	addi	sp,sp,-16
     930:	fb058593          	addi	a1,a1,-80
     934:	c422                	sw	s0,8(sp)
     936:	842a                	mv	s0,a0
     938:	0ff5f513          	andi	a0,a1,255
     93c:	c606                	sw	ra,12(sp)
     93e:	374d                	jal	8e0 <OLED12864_SendCom>
     940:	00445513          	srli	a0,s0,0x4
     944:	0541                	addi	a0,a0,16
     946:	3f69                	jal	8e0 <OLED12864_SendCom>
     948:	00f47513          	andi	a0,s0,15
     94c:	4422                	lw	s0,8(sp)
     94e:	40b2                	lw	ra,12(sp)
     950:	0141                	addi	sp,sp,16
     952:	b779                	j	8e0 <OLED12864_SendCom>

00000954 <OLED12864_Location>:
     954:	03f00793          	li	a5,63
     958:	00b7f363          	bgeu	a5,a1,95e <OLED12864_Location+0xa>
     95c:	4581                	li	a1,0
     95e:	01851793          	slli	a5,a0,0x18
     962:	87e1                	srai	a5,a5,0x18
     964:	0007d363          	bgez	a5,96a <OLED12864_Location+0x16>
     968:	4501                	li	a0,0
     96a:	c9818713          	addi	a4,gp,-872 # 20000508 <Buff>
     96e:	00b700a3          	sb	a1,1(a4)
     972:	c8a18c23          	sb	a0,-872(gp) # 20000508 <Buff>
     976:	8082                	ret

00000978 <RefreshAll>:
     978:	1101                	addi	sp,sp,-32
     97a:	c84a                	sw	s2,16(sp)
     97c:	4581                	li	a1,0
     97e:	4501                	li	a0,0
     980:	cc22                	sw	s0,24(sp)
     982:	c64e                	sw	s3,12(sp)
     984:	c452                	sw	s4,8(sp)
     986:	ce06                	sw	ra,28(sp)
     988:	ca26                	sw	s1,20(sp)
     98a:	89818913          	addi	s2,gp,-1896 # 20000108 <DisBuff>
     98e:	3745                	jal	92e <Location>
     990:	4401                	li	s0,0
     992:	08000993          	li	s3,128
     996:	4a21                	li	s4,8
     998:	4481                	li	s1,0
     99a:	0ff4f513          	andi	a0,s1,255
     99e:	85a2                	mv	a1,s0
     9a0:	3779                	jal	92e <Location>
     9a2:	009907b3          	add	a5,s2,s1
     9a6:	0007c503          	lbu	a0,0(a5) # c0000 <_data_lma+0xbc8bc>
     9aa:	0485                	addi	s1,s1,1
     9ac:	3fa9                	jal	906 <OLED12864_SendData>
     9ae:	ff3496e3          	bne	s1,s3,99a <RefreshAll+0x22>
     9b2:	0405                	addi	s0,s0,1
     9b4:	0ff47413          	andi	s0,s0,255
     9b8:	08090913          	addi	s2,s2,128
     9bc:	fd441ee3          	bne	s0,s4,998 <RefreshAll+0x20>
     9c0:	40f2                	lw	ra,28(sp)
     9c2:	4462                	lw	s0,24(sp)
     9c4:	44d2                	lw	s1,20(sp)
     9c6:	4942                	lw	s2,16(sp)
     9c8:	49b2                	lw	s3,12(sp)
     9ca:	4a22                	lw	s4,8(sp)
     9cc:	6105                	addi	sp,sp,32
     9ce:	8082                	ret

000009d0 <Refresh>:
     9d0:	1101                	addi	sp,sp,-32
     9d2:	cc22                	sw	s0,24(sp)
     9d4:	00d58433          	add	s0,a1,a3
     9d8:	147d                	addi	s0,s0,-1
     9da:	46a1                	li	a3,8
     9dc:	02d44433          	div	s0,s0,a3
     9e0:	c64e                	sw	s3,12(sp)
     9e2:	fff60993          	addi	s3,a2,-1
     9e6:	c256                	sw	s5,4(sp)
     9e8:	99aa                	add	s3,s3,a0
     9ea:	ca26                	sw	s1,20(sp)
     9ec:	c452                	sw	s4,8(sp)
     9ee:	ce06                	sw	ra,28(sp)
     9f0:	c84a                	sw	s2,16(sp)
     9f2:	c05a                	sw	s6,0(sp)
     9f4:	8a2a                	mv	s4,a0
     9f6:	0ff9f993          	andi	s3,s3,255
     9fa:	0035d493          	srli	s1,a1,0x3
     9fe:	89818a93          	addi	s5,gp,-1896 # 20000108 <DisBuff>
     a02:	0ff47413          	andi	s0,s0,255
     a06:	0ff4f593          	andi	a1,s1,255
     a0a:	00b47c63          	bgeu	s0,a1,a22 <Refresh+0x52>
     a0e:	40f2                	lw	ra,28(sp)
     a10:	4462                	lw	s0,24(sp)
     a12:	44d2                	lw	s1,20(sp)
     a14:	4942                	lw	s2,16(sp)
     a16:	49b2                	lw	s3,12(sp)
     a18:	4a22                	lw	s4,8(sp)
     a1a:	4a92                	lw	s5,4(sp)
     a1c:	4b02                	lw	s6,0(sp)
     a1e:	6105                	addi	sp,sp,32
     a20:	8082                	ret
     a22:	8552                	mv	a0,s4
     a24:	00749b13          	slli	s6,s1,0x7
     a28:	3719                	jal	92e <Location>
     a2a:	8952                	mv	s2,s4
     a2c:	9b56                	add	s6,s6,s5
     a2e:	0129f463          	bgeu	s3,s2,a36 <Refresh+0x66>
     a32:	0485                	addi	s1,s1,1
     a34:	bfc9                	j	a06 <Refresh+0x36>
     a36:	012b07b3          	add	a5,s6,s2
     a3a:	0007c503          	lbu	a0,0(a5)
     a3e:	0905                	addi	s2,s2,1
     a40:	0ff97913          	andi	s2,s2,255
     a44:	35c9                	jal	906 <OLED12864_SendData>
     a46:	b7e5                	j	a2e <Refresh+0x5e>

00000a48 <ClearPointofBuf>:
     a48:	1141                	addi	sp,sp,-16
     a4a:	c606                	sw	ra,12(sp)
     a4c:	3721                	jal	954 <OLED12864_Location>
     a4e:	c9818793          	addi	a5,gp,-872 # 20000508 <Buff>
     a52:	0017c703          	lbu	a4,1(a5)
     a56:	c981c603          	lbu	a2,-872(gp) # 20000508 <Buff>
     a5a:	00375793          	srli	a5,a4,0x3
     a5e:	00779693          	slli	a3,a5,0x7
     a62:	89818793          	addi	a5,gp,-1896 # 20000108 <DisBuff>
     a66:	97b6                	add	a5,a5,a3
     a68:	97b2                	add	a5,a5,a2
     a6a:	00777693          	andi	a3,a4,7
     a6e:	4705                	li	a4,1
     a70:	00d71733          	sll	a4,a4,a3
     a74:	0007c683          	lbu	a3,0(a5)
     a78:	fff74713          	not	a4,a4
     a7c:	8f75                	and	a4,a4,a3
     a7e:	00e78023          	sb	a4,0(a5)
     a82:	40b2                	lw	ra,12(sp)
     a84:	0141                	addi	sp,sp,16
     a86:	8082                	ret

00000a88 <WriteBytetoBuf>:
     a88:	c9818793          	addi	a5,gp,-872 # 20000508 <Buff>
     a8c:	0017c703          	lbu	a4,1(a5)
     a90:	c981c603          	lbu	a2,-872(gp) # 20000508 <Buff>
     a94:	00375593          	srli	a1,a4,0x3
     a98:	89818793          	addi	a5,gp,-1896 # 20000108 <DisBuff>
     a9c:	00759813          	slli	a6,a1,0x7
     aa0:	983e                	add	a6,a6,a5
     aa2:	9832                	add	a6,a6,a2
     aa4:	00084e03          	lbu	t3,0(a6)
     aa8:	00777893          	andi	a7,a4,7
     aac:	01151333          	sll	t1,a0,a7
     ab0:	01c36333          	or	t1,t1,t3
     ab4:	00680023          	sb	t1,0(a6)
     ab8:	c9818813          	addi	a6,gp,-872 # 20000508 <Buff>
     abc:	02088063          	beqz	a7,adc <WriteBytetoBuf+0x54>
     ac0:	0585                	addi	a1,a1,1
     ac2:	059e                	slli	a1,a1,0x7
     ac4:	97ae                	add	a5,a5,a1
     ac6:	45a1                	li	a1,8
     ac8:	97b2                	add	a5,a5,a2
     aca:	411585b3          	sub	a1,a1,a7
     ace:	40b55533          	sra	a0,a0,a1
     ad2:	0007c583          	lbu	a1,0(a5)
     ad6:	8d4d                	or	a0,a0,a1
     ad8:	00a78023          	sb	a0,0(a5)
     adc:	01861793          	slli	a5,a2,0x18
     ae0:	87e1                	srai	a5,a5,0x18
     ae2:	0207d163          	bgez	a5,b04 <WriteBytetoBuf+0x7c>
     ae6:	0721                	addi	a4,a4,8
     ae8:	c8018c23          	sb	zero,-872(gp) # 20000508 <Buff>
     aec:	0ff77713          	andi	a4,a4,255
     af0:	03f00793          	li	a5,63
     af4:	00e7e563          	bltu	a5,a4,afe <WriteBytetoBuf+0x76>
     af8:	00e800a3          	sb	a4,1(a6)
     afc:	8082                	ret
     afe:	000800a3          	sb	zero,1(a6)
     b02:	8082                	ret
     b04:	0605                	addi	a2,a2,1
     b06:	c8c18c23          	sb	a2,-872(gp) # 20000508 <Buff>
     b0a:	8082                	ret

00000b0c <ClearAllBuf>:
     b0c:	89818793          	addi	a5,gp,-1896 # 20000108 <DisBuff>
     b10:	40078693          	addi	a3,a5,1024
     b14:	08000613          	li	a2,128
     b18:	4701                	li	a4,0
     b1a:	00e785b3          	add	a1,a5,a4
     b1e:	00058023          	sb	zero,0(a1)
     b22:	0705                	addi	a4,a4,1
     b24:	fec71be3          	bne	a4,a2,b1a <ClearAllBuf+0xe>
     b28:	08078793          	addi	a5,a5,128
     b2c:	fed796e3          	bne	a5,a3,b18 <ClearAllBuf+0xc>
     b30:	8082                	ret

00000b32 <OLED12864_Clean>:
     b32:	1141                	addi	sp,sp,-16
     b34:	c606                	sw	ra,12(sp)
     b36:	3fd9                	jal	b0c <ClearAllBuf>
     b38:	40b2                	lw	ra,12(sp)
     b3a:	0141                	addi	sp,sp,16
     b3c:	bd35                	j	978 <RefreshAll>

00000b3e <OLED12864_Init>:
     b3e:	1141                	addi	sp,sp,-16
     b40:	c606                	sw	ra,12(sp)
     b42:	3929                	jal	75c <OLED12864_IoInit>
     b44:	4551                	li	a0,20
     b46:	0ad010ef          	jal	ra,23f2 <Delayxms>
     b4a:	0ae00513          	li	a0,174
     b4e:	3b49                	jal	8e0 <OLED12864_SendCom>
     b50:	4509                	li	a0,2
     b52:	3379                	jal	8e0 <OLED12864_SendCom>
     b54:	4541                	li	a0,16
     b56:	3369                	jal	8e0 <OLED12864_SendCom>
     b58:	04000513          	li	a0,64
     b5c:	3351                	jal	8e0 <OLED12864_SendCom>
     b5e:	08100513          	li	a0,129
     b62:	3bbd                	jal	8e0 <OLED12864_SendCom>
     b64:	0cf00513          	li	a0,207
     b68:	3ba5                	jal	8e0 <OLED12864_SendCom>
     b6a:	0a100513          	li	a0,161
     b6e:	3b8d                	jal	8e0 <OLED12864_SendCom>
     b70:	0c800513          	li	a0,200
     b74:	33b5                	jal	8e0 <OLED12864_SendCom>
     b76:	0a600513          	li	a0,166
     b7a:	339d                	jal	8e0 <OLED12864_SendCom>
     b7c:	0a800513          	li	a0,168
     b80:	3385                	jal	8e0 <OLED12864_SendCom>
     b82:	03f00513          	li	a0,63
     b86:	3ba9                	jal	8e0 <OLED12864_SendCom>
     b88:	08100513          	li	a0,129
     b8c:	3b91                	jal	8e0 <OLED12864_SendCom>
     b8e:	0ff00513          	li	a0,255
     b92:	33b9                	jal	8e0 <OLED12864_SendCom>
     b94:	0d300513          	li	a0,211
     b98:	33a1                	jal	8e0 <OLED12864_SendCom>
     b9a:	4501                	li	a0,0
     b9c:	3391                	jal	8e0 <OLED12864_SendCom>
     b9e:	0d500513          	li	a0,213
     ba2:	3b3d                	jal	8e0 <OLED12864_SendCom>
     ba4:	08000513          	li	a0,128
     ba8:	3b25                	jal	8e0 <OLED12864_SendCom>
     baa:	0d900513          	li	a0,217
     bae:	3b0d                	jal	8e0 <OLED12864_SendCom>
     bb0:	0f100513          	li	a0,241
     bb4:	3335                	jal	8e0 <OLED12864_SendCom>
     bb6:	0da00513          	li	a0,218
     bba:	331d                	jal	8e0 <OLED12864_SendCom>
     bbc:	4549                	li	a0,18
     bbe:	330d                	jal	8e0 <OLED12864_SendCom>
     bc0:	0db00513          	li	a0,219
     bc4:	3b31                	jal	8e0 <OLED12864_SendCom>
     bc6:	04000513          	li	a0,64
     bca:	3b19                	jal	8e0 <OLED12864_SendCom>
     bcc:	02000513          	li	a0,32
     bd0:	3b01                	jal	8e0 <OLED12864_SendCom>
     bd2:	4509                	li	a0,2
     bd4:	3331                	jal	8e0 <OLED12864_SendCom>
     bd6:	08d00513          	li	a0,141
     bda:	3319                	jal	8e0 <OLED12864_SendCom>
     bdc:	4551                	li	a0,20
     bde:	3309                	jal	8e0 <OLED12864_SendCom>
     be0:	0a400513          	li	a0,164
     be4:	39f5                	jal	8e0 <OLED12864_SendCom>
     be6:	0a600513          	li	a0,166
     bea:	39dd                	jal	8e0 <OLED12864_SendCom>
     bec:	0af00513          	li	a0,175
     bf0:	39c5                	jal	8e0 <OLED12864_SendCom>
     bf2:	40b2                	lw	ra,12(sp)
     bf4:	0141                	addi	sp,sp,16
     bf6:	bf35                	j	b32 <OLED12864_Clean>

00000bf8 <ClearBuf>:
     bf8:	1101                	addi	sp,sp,-32
     bfa:	96ae                	add	a3,a3,a1
     bfc:	962a                	add	a2,a2,a0
     bfe:	cc22                	sw	s0,24(sp)
     c00:	c84a                	sw	s2,16(sp)
     c02:	c64e                	sw	s3,12(sp)
     c04:	c452                	sw	s4,8(sp)
     c06:	ce06                	sw	ra,28(sp)
     c08:	ca26                	sw	s1,20(sp)
     c0a:	8a2a                	mv	s4,a0
     c0c:	842e                	mv	s0,a1
     c0e:	0ff6f913          	andi	s2,a3,255
     c12:	0ff67993          	andi	s3,a2,255
     c16:	03246663          	bltu	s0,s2,c42 <ClearBuf+0x4a>
     c1a:	40f2                	lw	ra,28(sp)
     c1c:	4462                	lw	s0,24(sp)
     c1e:	44d2                	lw	s1,20(sp)
     c20:	4942                	lw	s2,16(sp)
     c22:	49b2                	lw	s3,12(sp)
     c24:	4a22                	lw	s4,8(sp)
     c26:	6105                	addi	sp,sp,32
     c28:	8082                	ret
     c2a:	8526                	mv	a0,s1
     c2c:	85a2                	mv	a1,s0
     c2e:	0485                	addi	s1,s1,1
     c30:	3d21                	jal	a48 <ClearPointofBuf>
     c32:	0ff4f493          	andi	s1,s1,255
     c36:	ff34eae3          	bltu	s1,s3,c2a <ClearBuf+0x32>
     c3a:	0405                	addi	s0,s0,1
     c3c:	0ff47413          	andi	s0,s0,255
     c40:	bfd9                	j	c16 <ClearBuf+0x1e>
     c42:	84d2                	mv	s1,s4
     c44:	bfcd                	j	c36 <ClearBuf+0x3e>

00000c46 <WriteChartoBuf>:
     c46:	1141                	addi	sp,sp,-16
     c48:	c422                	sw	s0,8(sp)
     c4a:	4419                	li	s0,6
     c4c:	02850533          	mul	a0,a0,s0
     c50:	640d                	lui	s0,0x3
     c52:	30040413          	addi	s0,s0,768 # 3300 <Font6x8>
     c56:	c226                	sw	s1,4(sp)
     c58:	c606                	sw	ra,12(sp)
     c5a:	4499                	li	s1,6
     c5c:	942a                	add	s0,s0,a0
     c5e:	f4044503          	lbu	a0,-192(s0)
     c62:	14fd                	addi	s1,s1,-1
     c64:	0ff4f493          	andi	s1,s1,255
     c68:	3505                	jal	a88 <WriteBytetoBuf>
     c6a:	0405                	addi	s0,s0,1
     c6c:	f8ed                	bnez	s1,c5e <WriteChartoBuf+0x18>
     c6e:	40b2                	lw	ra,12(sp)
     c70:	4422                	lw	s0,8(sp)
     c72:	4492                	lw	s1,4(sp)
     c74:	0141                	addi	sp,sp,16
     c76:	8082                	ret

00000c78 <WriteRevChartoBuf>:
     c78:	1141                	addi	sp,sp,-16
     c7a:	c422                	sw	s0,8(sp)
     c7c:	4419                	li	s0,6
     c7e:	02850533          	mul	a0,a0,s0
     c82:	640d                	lui	s0,0x3
     c84:	30040413          	addi	s0,s0,768 # 3300 <Font6x8>
     c88:	c226                	sw	s1,4(sp)
     c8a:	c606                	sw	ra,12(sp)
     c8c:	4499                	li	s1,6
     c8e:	942a                	add	s0,s0,a0
     c90:	f4044503          	lbu	a0,-192(s0)
     c94:	14fd                	addi	s1,s1,-1
     c96:	0ff4f493          	andi	s1,s1,255
     c9a:	fff54513          	not	a0,a0
     c9e:	0ff57513          	andi	a0,a0,255
     ca2:	33dd                	jal	a88 <WriteBytetoBuf>
     ca4:	0405                	addi	s0,s0,1
     ca6:	f4ed                	bnez	s1,c90 <WriteRevChartoBuf+0x18>
     ca8:	40b2                	lw	ra,12(sp)
     caa:	4422                	lw	s0,8(sp)
     cac:	4492                	lw	s1,4(sp)
     cae:	0141                	addi	sp,sp,16
     cb0:	8082                	ret

00000cb2 <WriteStrtoBuf>:
     cb2:	1141                	addi	sp,sp,-16
     cb4:	c422                	sw	s0,8(sp)
     cb6:	c226                	sw	s1,4(sp)
     cb8:	c606                	sw	ra,12(sp)
     cba:	84aa                	mv	s1,a0
     cbc:	4401                	li	s0,0
     cbe:	0ff47513          	andi	a0,s0,255
     cc2:	0405                	addi	s0,s0,1
     cc4:	008487b3          	add	a5,s1,s0
     cc8:	fff78783          	lb	a5,-1(a5)
     ccc:	e791                	bnez	a5,cd8 <WriteStrtoBuf+0x26>
     cce:	40b2                	lw	ra,12(sp)
     cd0:	4422                	lw	s0,8(sp)
     cd2:	4492                	lw	s1,4(sp)
     cd4:	0141                	addi	sp,sp,16
     cd6:	8082                	ret
     cd8:	0ff7f513          	andi	a0,a5,255
     cdc:	37ad                	jal	c46 <WriteChartoBuf>
     cde:	b7c5                	j	cbe <WriteStrtoBuf+0xc>

00000ce0 <WriteRevStrtoBuf>:
     ce0:	1141                	addi	sp,sp,-16
     ce2:	c422                	sw	s0,8(sp)
     ce4:	c226                	sw	s1,4(sp)
     ce6:	c606                	sw	ra,12(sp)
     ce8:	84aa                	mv	s1,a0
     cea:	4401                	li	s0,0
     cec:	0ff47513          	andi	a0,s0,255
     cf0:	0405                	addi	s0,s0,1
     cf2:	008487b3          	add	a5,s1,s0
     cf6:	fff78783          	lb	a5,-1(a5)
     cfa:	e791                	bnez	a5,d06 <WriteRevStrtoBuf+0x26>
     cfc:	40b2                	lw	ra,12(sp)
     cfe:	4422                	lw	s0,8(sp)
     d00:	4492                	lw	s1,4(sp)
     d02:	0141                	addi	sp,sp,16
     d04:	8082                	ret
     d06:	0ff7f513          	andi	a0,a5,255
     d0a:	37bd                	jal	c78 <WriteRevChartoBuf>
     d0c:	b7c5                	j	cec <WriteRevStrtoBuf+0xc>

00000d0e <OLED12864_DisStr>:
     d0e:	1101                	addi	sp,sp,-32
     d10:	cc22                	sw	s0,24(sp)
     d12:	c84a                	sw	s2,16(sp)
     d14:	c632                	sw	a2,12(sp)
     d16:	c436                	sw	a3,8(sp)
     d18:	ce06                	sw	ra,28(sp)
     d1a:	ca26                	sw	s1,20(sp)
     d1c:	3925                	jal	954 <OLED12864_Location>
     d1e:	c981c583          	lbu	a1,-872(gp) # 20000508 <Buff>
     d22:	c9818713          	addi	a4,gp,-872 # 20000508 <Buff>
     d26:	00174703          	lbu	a4,1(a4)
     d2a:	46a2                	lw	a3,8(sp)
     d2c:	4632                	lw	a2,12(sp)
     d2e:	c8b18e23          	sb	a1,-868(gp) # 2000050c <Start>
     d32:	c9c18593          	addi	a1,gp,-868 # 2000050c <Start>
     d36:	00e580a3          	sb	a4,1(a1)
     d3a:	843e                	mv	s0,a5
     d3c:	c9c18913          	addi	s2,gp,-868 # 2000050c <Start>
     d40:	8536                	mv	a0,a3
     d42:	c60d                	beqz	a2,d6c <OLED12864_DisStr+0x5e>
     d44:	3f71                	jal	ce0 <WriteRevStrtoBuf>
     d46:	4619                	li	a2,6
     d48:	02c50633          	mul	a2,a0,a2
     d4c:	84aa                	mv	s1,a0
     d4e:	00194583          	lbu	a1,1(s2)
     d52:	c9c1c503          	lbu	a0,-868(gp) # 2000050c <Start>
     d56:	46a1                	li	a3,8
     d58:	0fe67613          	andi	a2,a2,254
     d5c:	3995                	jal	9d0 <Refresh>
     d5e:	40f2                	lw	ra,28(sp)
     d60:	4462                	lw	s0,24(sp)
     d62:	8526                	mv	a0,s1
     d64:	4942                	lw	s2,16(sp)
     d66:	44d2                	lw	s1,20(sp)
     d68:	6105                	addi	sp,sp,32
     d6a:	8082                	ret
     d6c:	3799                	jal	cb2 <WriteStrtoBuf>
     d6e:	bfe1                	j	d46 <OLED12864_DisStr+0x38>

00000d70 <OLED12864_Format1>:
     d70:	1101                	addi	sp,sp,-32
     d72:	ca26                	sw	s1,20(sp)
     d74:	84ae                	mv	s1,a1
     d76:	000035b7          	lui	a1,0x3
     d7a:	cc22                	sw	s0,24(sp)
     d7c:	c84a                	sw	s2,16(sp)
     d7e:	842a                	mv	s0,a0
     d80:	8932                	mv	s2,a2
     d82:	52458593          	addi	a1,a1,1316 # 3524 <Font6x8+0x224>
     d86:	8636                	mv	a2,a3
     d88:	0028                	addi	a0,sp,8
     d8a:	ce06                	sw	ra,28(sp)
     d8c:	2e5010ef          	jal	ra,2870 <siprintf>
     d90:	4619                	li	a2,6
     d92:	02c50633          	mul	a2,a0,a2
     d96:	85a6                	mv	a1,s1
     d98:	8522                	mv	a0,s0
     d9a:	46a1                	li	a3,8
     d9c:	0fe67613          	andi	a2,a2,254
     da0:	3da1                	jal	bf8 <ClearBuf>
     da2:	0034                	addi	a3,sp,8
     da4:	864a                	mv	a2,s2
     da6:	85a6                	mv	a1,s1
     da8:	8522                	mv	a0,s0
     daa:	3795                	jal	d0e <OLED12864_DisStr>
     dac:	40f2                	lw	ra,28(sp)
     dae:	4462                	lw	s0,24(sp)
     db0:	44d2                	lw	s1,20(sp)
     db2:	4942                	lw	s2,16(sp)
     db4:	6105                	addi	sp,sp,32
     db6:	8082                	ret

00000db8 <OLED12864_Format3>:
     db8:	1101                	addi	sp,sp,-32
     dba:	ca26                	sw	s1,20(sp)
     dbc:	84ae                	mv	s1,a1
     dbe:	000035b7          	lui	a1,0x3
     dc2:	cc22                	sw	s0,24(sp)
     dc4:	c84a                	sw	s2,16(sp)
     dc6:	842a                	mv	s0,a0
     dc8:	8932                	mv	s2,a2
     dca:	52c58593          	addi	a1,a1,1324 # 352c <Font6x8+0x22c>
     dce:	8636                	mv	a2,a3
     dd0:	0068                	addi	a0,sp,12
     dd2:	ce06                	sw	ra,28(sp)
     dd4:	29d010ef          	jal	ra,2870 <siprintf>
     dd8:	4619                	li	a2,6
     dda:	02c50633          	mul	a2,a0,a2
     dde:	85a6                	mv	a1,s1
     de0:	8522                	mv	a0,s0
     de2:	46a1                	li	a3,8
     de4:	0fe67613          	andi	a2,a2,254
     de8:	3d01                	jal	bf8 <ClearBuf>
     dea:	0074                	addi	a3,sp,12
     dec:	864a                	mv	a2,s2
     dee:	85a6                	mv	a1,s1
     df0:	8522                	mv	a0,s0
     df2:	3f31                	jal	d0e <OLED12864_DisStr>
     df4:	40f2                	lw	ra,28(sp)
     df6:	4462                	lw	s0,24(sp)
     df8:	44d2                	lw	s1,20(sp)
     dfa:	4942                	lw	s2,16(sp)
     dfc:	6105                	addi	sp,sp,32
     dfe:	8082                	ret

00000e00 <OLED12864_Format4>:
     e00:	1101                	addi	sp,sp,-32
     e02:	ca26                	sw	s1,20(sp)
     e04:	84ae                	mv	s1,a1
     e06:	000035b7          	lui	a1,0x3
     e0a:	cc22                	sw	s0,24(sp)
     e0c:	c84a                	sw	s2,16(sp)
     e0e:	842a                	mv	s0,a0
     e10:	8932                	mv	s2,a2
     e12:	53458593          	addi	a1,a1,1332 # 3534 <Font6x8+0x234>
     e16:	8636                	mv	a2,a3
     e18:	0048                	addi	a0,sp,4
     e1a:	ce06                	sw	ra,28(sp)
     e1c:	255010ef          	jal	ra,2870 <siprintf>
     e20:	4619                	li	a2,6
     e22:	02c50633          	mul	a2,a0,a2
     e26:	85a6                	mv	a1,s1
     e28:	8522                	mv	a0,s0
     e2a:	46a1                	li	a3,8
     e2c:	0fe67613          	andi	a2,a2,254
     e30:	33e1                	jal	bf8 <ClearBuf>
     e32:	0054                	addi	a3,sp,4
     e34:	864a                	mv	a2,s2
     e36:	85a6                	mv	a1,s1
     e38:	8522                	mv	a0,s0
     e3a:	3dd1                	jal	d0e <OLED12864_DisStr>
     e3c:	40f2                	lw	ra,28(sp)
     e3e:	4462                	lw	s0,24(sp)
     e40:	44d2                	lw	s1,20(sp)
     e42:	4942                	lw	s2,16(sp)
     e44:	6105                	addi	sp,sp,32
     e46:	8082                	ret

00000e48 <OLED12864_Format6>:
     e48:	1101                	addi	sp,sp,-32
     e4a:	ca26                	sw	s1,20(sp)
     e4c:	84ae                	mv	s1,a1
     e4e:	000035b7          	lui	a1,0x3
     e52:	cc22                	sw	s0,24(sp)
     e54:	c84a                	sw	s2,16(sp)
     e56:	842a                	mv	s0,a0
     e58:	8932                	mv	s2,a2
     e5a:	53c58593          	addi	a1,a1,1340 # 353c <Font6x8+0x23c>
     e5e:	8636                	mv	a2,a3
     e60:	0028                	addi	a0,sp,8
     e62:	ce06                	sw	ra,28(sp)
     e64:	20d010ef          	jal	ra,2870 <siprintf>
     e68:	4619                	li	a2,6
     e6a:	02c50633          	mul	a2,a0,a2
     e6e:	85a6                	mv	a1,s1
     e70:	8522                	mv	a0,s0
     e72:	46a1                	li	a3,8
     e74:	0fe67613          	andi	a2,a2,254
     e78:	3341                	jal	bf8 <ClearBuf>
     e7a:	0034                	addi	a3,sp,8
     e7c:	864a                	mv	a2,s2
     e7e:	85a6                	mv	a1,s1
     e80:	8522                	mv	a0,s0
     e82:	3571                	jal	d0e <OLED12864_DisStr>
     e84:	40f2                	lw	ra,28(sp)
     e86:	4462                	lw	s0,24(sp)
     e88:	44d2                	lw	s1,20(sp)
     e8a:	4942                	lw	s2,16(sp)
     e8c:	6105                	addi	sp,sp,32
     e8e:	8082                	ret

00000e90 <Key_Init>:
     e90:	1101                	addi	sp,sp,-32
     e92:	4585                	li	a1,1
     e94:	4521                	li	a0,8
     e96:	ce06                	sw	ra,28(sp)
     e98:	cc22                	sw	s0,24(sp)
     e9a:	ca26                	sw	s1,20(sp)
     e9c:	340010ef          	jal	ra,21dc <RCC_APB2PeriphClockCmd>
     ea0:	4585                	li	a1,1
     ea2:	4521                	li	a0,8
     ea4:	338010ef          	jal	ra,21dc <RCC_APB2PeriphClockCmd>
     ea8:	4585                	li	a1,1
     eaa:	4521                	li	a0,8
     eac:	330010ef          	jal	ra,21dc <RCC_APB2PeriphClockCmd>
     eb0:	4585                	li	a1,1
     eb2:	4521                	li	a0,8
     eb4:	328010ef          	jal	ra,21dc <RCC_APB2PeriphClockCmd>
     eb8:	40011437          	lui	s0,0x40011
     ebc:	04800493          	li	s1,72
     ec0:	6791                	lui	a5,0x4
     ec2:	004c                	addi	a1,sp,4
     ec4:	c0040513          	addi	a0,s0,-1024 # 40010c00 <_eusrstack+0x20008c00>
     ec8:	00f11223          	sh	a5,4(sp)
     ecc:	c626                	sw	s1,12(sp)
     ece:	06e010ef          	jal	ra,1f3c <GPIO_Init>
     ed2:	6789                	lui	a5,0x2
     ed4:	004c                	addi	a1,sp,4
     ed6:	c0040513          	addi	a0,s0,-1024
     eda:	00f11223          	sh	a5,4(sp)
     ede:	c626                	sw	s1,12(sp)
     ee0:	05c010ef          	jal	ra,1f3c <GPIO_Init>
     ee4:	77e1                	lui	a5,0xffff8
     ee6:	004c                	addi	a1,sp,4
     ee8:	c0040513          	addi	a0,s0,-1024
     eec:	00f11223          	sh	a5,4(sp)
     ef0:	c626                	sw	s1,12(sp)
     ef2:	04a010ef          	jal	ra,1f3c <GPIO_Init>
     ef6:	6785                	lui	a5,0x1
     ef8:	004c                	addi	a1,sp,4
     efa:	c0040513          	addi	a0,s0,-1024
     efe:	c626                	sw	s1,12(sp)
     f00:	00f11223          	sh	a5,4(sp)
     f04:	038010ef          	jal	ra,1f3c <GPIO_Init>
     f08:	40f2                	lw	ra,28(sp)
     f0a:	4462                	lw	s0,24(sp)
     f0c:	44d2                	lw	s1,20(sp)
     f0e:	6105                	addi	sp,sp,32
     f10:	8082                	ret

00000f12 <LED1_OFF>:
     f12:	40011537          	lui	a0,0x40011
     f16:	45c1                	li	a1,16
     f18:	80050513          	addi	a0,a0,-2048 # 40010800 <_eusrstack+0x20008800>
     f1c:	0ec0106f          	j	2008 <GPIO_SetBits>

00000f20 <LED2_OFF>:
     f20:	40011537          	lui	a0,0x40011
     f24:	02000593          	li	a1,32
     f28:	80050513          	addi	a0,a0,-2048 # 40010800 <_eusrstack+0x20008800>
     f2c:	0dc0106f          	j	2008 <GPIO_SetBits>

00000f30 <LEDInit>:
     f30:	1101                	addi	sp,sp,-32
     f32:	4585                	li	a1,1
     f34:	4511                	li	a0,4
     f36:	ce06                	sw	ra,28(sp)
     f38:	cc22                	sw	s0,24(sp)
     f3a:	ca26                	sw	s1,20(sp)
     f3c:	c84a                	sw	s2,16(sp)
     f3e:	c202                	sw	zero,4(sp)
     f40:	c402                	sw	zero,8(sp)
     f42:	c602                	sw	zero,12(sp)
     f44:	298010ef          	jal	ra,21dc <RCC_APB2PeriphClockCmd>
     f48:	4585                	li	a1,1
     f4a:	4511                	li	a0,4
     f4c:	290010ef          	jal	ra,21dc <RCC_APB2PeriphClockCmd>
     f50:	40011437          	lui	s0,0x40011
     f54:	47c1                	li	a5,16
     f56:	490d                	li	s2,3
     f58:	44c1                	li	s1,16
     f5a:	004c                	addi	a1,sp,4
     f5c:	80040513          	addi	a0,s0,-2048 # 40010800 <_eusrstack+0x20008800>
     f60:	00f11223          	sh	a5,4(sp)
     f64:	c44a                	sw	s2,8(sp)
     f66:	c626                	sw	s1,12(sp)
     f68:	7d5000ef          	jal	ra,1f3c <GPIO_Init>
     f6c:	02000793          	li	a5,32
     f70:	004c                	addi	a1,sp,4
     f72:	80040513          	addi	a0,s0,-2048
     f76:	00f11223          	sh	a5,4(sp)
     f7a:	c44a                	sw	s2,8(sp)
     f7c:	c626                	sw	s1,12(sp)
     f7e:	7bf000ef          	jal	ra,1f3c <GPIO_Init>
     f82:	3f41                	jal	f12 <LED1_OFF>
     f84:	3f71                	jal	f20 <LED2_OFF>
     f86:	40f2                	lw	ra,28(sp)
     f88:	4462                	lw	s0,24(sp)
     f8a:	44d2                	lw	s1,20(sp)
     f8c:	4942                	lw	s2,16(sp)
     f8e:	6105                	addi	sp,sp,32
     f90:	8082                	ret

00000f92 <LED1Reverse>:
     f92:	1141                	addi	sp,sp,-16
     f94:	c422                	sw	s0,8(sp)
     f96:	40011437          	lui	s0,0x40011
     f9a:	45c1                	li	a1,16
     f9c:	80040513          	addi	a0,s0,-2048 # 40010800 <_eusrstack+0x20008800>
     fa0:	c606                	sw	ra,12(sp)
     fa2:	05c010ef          	jal	ra,1ffe <GPIO_ReadOutputDataBit>
     fa6:	45c1                	li	a1,16
     fa8:	c901                	beqz	a0,fb8 <LED1Reverse+0x26>
     faa:	80040513          	addi	a0,s0,-2048
     fae:	4422                	lw	s0,8(sp)
     fb0:	40b2                	lw	ra,12(sp)
     fb2:	0141                	addi	sp,sp,16
     fb4:	0580106f          	j	200c <GPIO_ResetBits>
     fb8:	80040513          	addi	a0,s0,-2048
     fbc:	4422                	lw	s0,8(sp)
     fbe:	40b2                	lw	ra,12(sp)
     fc0:	0141                	addi	sp,sp,16
     fc2:	0460106f          	j	2008 <GPIO_SetBits>

00000fc6 <MotorSpeedINIT>:
     fc6:	1101                	addi	sp,sp,-32
     fc8:	cc22                	sw	s0,24(sp)
     fca:	ca26                	sw	s1,20(sp)
     fcc:	c84a                	sw	s2,16(sp)
     fce:	c64e                	sw	s3,12(sp)
     fd0:	c452                	sw	s4,8(sp)
     fd2:	ce06                	sw	ra,28(sp)
     fd4:	80818693          	addi	a3,gp,-2040 # 20000078 <COM_LEFT_SPEED>
     fd8:	0056c603          	lbu	a2,5(a3)
     fdc:	0066c783          	lbu	a5,6(a3)
     fe0:	0026c703          	lbu	a4,2(a3)
     fe4:	8fb1                	xor	a5,a5,a2
     fe6:	0046c603          	lbu	a2,4(a3)
     fea:	80818413          	addi	s0,gp,-2040 # 20000078 <COM_LEFT_SPEED>
     fee:	400049b7          	lui	s3,0x40004
     ff2:	8fb1                	xor	a5,a5,a2
     ff4:	0036c603          	lbu	a2,3(a3)
     ff8:	40005937          	lui	s2,0x40005
     ffc:	00840a13          	addi	s4,s0,8
    1000:	8fb1                	xor	a5,a5,a2
    1002:	0016c603          	lbu	a2,1(a3)
    1006:	8fb9                	xor	a5,a5,a4
    1008:	40098993          	addi	s3,s3,1024 # 40004400 <_eusrstack+0x1fffc400>
    100c:	8fb1                	xor	a5,a5,a2
    100e:	00f683a3          	sb	a5,7(a3)
    1012:	81018693          	addi	a3,gp,-2032 # 20000080 <COM_RIGHT_SPEED>
    1016:	40e007b3          	neg	a5,a4
    101a:	0056c603          	lbu	a2,5(a3)
    101e:	0066c703          	lbu	a4,6(a3)
    1022:	0ff7f793          	andi	a5,a5,255
    1026:	00f68123          	sb	a5,2(a3)
    102a:	8f31                	xor	a4,a4,a2
    102c:	0046c603          	lbu	a2,4(a3)
    1030:	81018493          	addi	s1,gp,-2032 # 20000080 <COM_RIGHT_SPEED>
    1034:	c0090913          	addi	s2,s2,-1024 # 40004c00 <_eusrstack+0x1fffcc00>
    1038:	8f31                	xor	a4,a4,a2
    103a:	0036c603          	lbu	a2,3(a3)
    103e:	8f31                	xor	a4,a4,a2
    1040:	0016c603          	lbu	a2,1(a3)
    1044:	8f31                	xor	a4,a4,a2
    1046:	8fb9                	xor	a5,a5,a4
    1048:	00f683a3          	sb	a5,7(a3)
    104c:	00044583          	lbu	a1,0(s0)
    1050:	854e                	mv	a0,s3
    1052:	0405                	addi	s0,s0,1
    1054:	ee8ff0ef          	jal	ra,73c <USARTx_SendByte>
    1058:	0004c583          	lbu	a1,0(s1)
    105c:	854a                	mv	a0,s2
    105e:	0485                	addi	s1,s1,1
    1060:	edcff0ef          	jal	ra,73c <USARTx_SendByte>
    1064:	fff4c583          	lbu	a1,-1(s1)
    1068:	40005537          	lui	a0,0x40005
    106c:	ed0ff0ef          	jal	ra,73c <USARTx_SendByte>
    1070:	fff44583          	lbu	a1,-1(s0)
    1074:	40002537          	lui	a0,0x40002
    1078:	ec4ff0ef          	jal	ra,73c <USARTx_SendByte>
    107c:	4529                	li	a0,10
    107e:	374010ef          	jal	ra,23f2 <Delayxms>
    1082:	fd4415e3          	bne	s0,s4,104c <MotorSpeedINIT+0x86>
    1086:	40f2                	lw	ra,28(sp)
    1088:	4462                	lw	s0,24(sp)
    108a:	44d2                	lw	s1,20(sp)
    108c:	4942                	lw	s2,16(sp)
    108e:	49b2                	lw	s3,12(sp)
    1090:	4a22                	lw	s4,8(sp)
    1092:	6105                	addi	sp,sp,32
    1094:	8082                	ret

00001096 <MotorCurrentGet>:
    1096:	1101                	addi	sp,sp,-32
    1098:	cc22                	sw	s0,24(sp)
    109a:	20000437          	lui	s0,0x20000
    109e:	ca26                	sw	s1,20(sp)
    10a0:	c84a                	sw	s2,16(sp)
    10a2:	c64e                	sw	s3,12(sp)
    10a4:	07040713          	addi	a4,s0,112 # 20000070 <COM_INFOR_GET>
    10a8:	ce06                	sw	ra,28(sp)
    10aa:	4791                	li	a5,4
    10ac:	00174683          	lbu	a3,1(a4)
    10b0:	00f70123          	sb	a5,2(a4)
    10b4:	00674783          	lbu	a5,6(a4)
    10b8:	07040413          	addi	s0,s0,112
    10bc:	40004937          	lui	s2,0x40004
    10c0:	8fb5                	xor	a5,a5,a3
    10c2:	00574683          	lbu	a3,5(a4)
    10c6:	400054b7          	lui	s1,0x40005
    10ca:	00840993          	addi	s3,s0,8
    10ce:	8fb5                	xor	a5,a5,a3
    10d0:	00474683          	lbu	a3,4(a4)
    10d4:	40090913          	addi	s2,s2,1024 # 40004400 <_eusrstack+0x1fffc400>
    10d8:	c0048493          	addi	s1,s1,-1024 # 40004c00 <_eusrstack+0x1fffcc00>
    10dc:	8fb5                	xor	a5,a5,a3
    10de:	00374683          	lbu	a3,3(a4)
    10e2:	8fb5                	xor	a5,a5,a3
    10e4:	0047c793          	xori	a5,a5,4
    10e8:	00f703a3          	sb	a5,7(a4)
    10ec:	00044583          	lbu	a1,0(s0)
    10f0:	854a                	mv	a0,s2
    10f2:	0405                	addi	s0,s0,1
    10f4:	e48ff0ef          	jal	ra,73c <USARTx_SendByte>
    10f8:	fff44583          	lbu	a1,-1(s0)
    10fc:	8526                	mv	a0,s1
    10fe:	e3eff0ef          	jal	ra,73c <USARTx_SendByte>
    1102:	fff44583          	lbu	a1,-1(s0)
    1106:	40005537          	lui	a0,0x40005
    110a:	e32ff0ef          	jal	ra,73c <USARTx_SendByte>
    110e:	fff44583          	lbu	a1,-1(s0)
    1112:	40002537          	lui	a0,0x40002
    1116:	e26ff0ef          	jal	ra,73c <USARTx_SendByte>
    111a:	4529                	li	a0,10
    111c:	2d6010ef          	jal	ra,23f2 <Delayxms>
    1120:	fd3416e3          	bne	s0,s3,10ec <MotorCurrentGet+0x56>
    1124:	40f2                	lw	ra,28(sp)
    1126:	4462                	lw	s0,24(sp)
    1128:	44d2                	lw	s1,20(sp)
    112a:	4942                	lw	s2,16(sp)
    112c:	49b2                	lw	s3,12(sp)
    112e:	6105                	addi	sp,sp,32
    1130:	8082                	ret

00001132 <MotorTempGet>:
    1132:	1101                	addi	sp,sp,-32
    1134:	cc22                	sw	s0,24(sp)
    1136:	20000437          	lui	s0,0x20000
    113a:	ca26                	sw	s1,20(sp)
    113c:	c84a                	sw	s2,16(sp)
    113e:	c64e                	sw	s3,12(sp)
    1140:	07040713          	addi	a4,s0,112 # 20000070 <COM_INFOR_GET>
    1144:	ce06                	sw	ra,28(sp)
    1146:	4795                	li	a5,5
    1148:	00174683          	lbu	a3,1(a4)
    114c:	00f70123          	sb	a5,2(a4)
    1150:	00674783          	lbu	a5,6(a4)
    1154:	07040413          	addi	s0,s0,112
    1158:	40004937          	lui	s2,0x40004
    115c:	8fb5                	xor	a5,a5,a3
    115e:	00574683          	lbu	a3,5(a4)
    1162:	400054b7          	lui	s1,0x40005
    1166:	00840993          	addi	s3,s0,8
    116a:	8fb5                	xor	a5,a5,a3
    116c:	00474683          	lbu	a3,4(a4)
    1170:	40090913          	addi	s2,s2,1024 # 40004400 <_eusrstack+0x1fffc400>
    1174:	c0048493          	addi	s1,s1,-1024 # 40004c00 <_eusrstack+0x1fffcc00>
    1178:	8fb5                	xor	a5,a5,a3
    117a:	00374683          	lbu	a3,3(a4)
    117e:	8fb5                	xor	a5,a5,a3
    1180:	0057c793          	xori	a5,a5,5
    1184:	00f703a3          	sb	a5,7(a4)
    1188:	00044583          	lbu	a1,0(s0)
    118c:	854a                	mv	a0,s2
    118e:	0405                	addi	s0,s0,1
    1190:	dacff0ef          	jal	ra,73c <USARTx_SendByte>
    1194:	fff44583          	lbu	a1,-1(s0)
    1198:	8526                	mv	a0,s1
    119a:	da2ff0ef          	jal	ra,73c <USARTx_SendByte>
    119e:	fff44583          	lbu	a1,-1(s0)
    11a2:	40005537          	lui	a0,0x40005
    11a6:	d96ff0ef          	jal	ra,73c <USARTx_SendByte>
    11aa:	fff44583          	lbu	a1,-1(s0)
    11ae:	40002537          	lui	a0,0x40002
    11b2:	d8aff0ef          	jal	ra,73c <USARTx_SendByte>
    11b6:	4529                	li	a0,10
    11b8:	23a010ef          	jal	ra,23f2 <Delayxms>
    11bc:	fd3416e3          	bne	s0,s3,1188 <MotorTempGet+0x56>
    11c0:	40f2                	lw	ra,28(sp)
    11c2:	4462                	lw	s0,24(sp)
    11c4:	44d2                	lw	s1,20(sp)
    11c6:	4942                	lw	s2,16(sp)
    11c8:	49b2                	lw	s3,12(sp)
    11ca:	6105                	addi	sp,sp,32
    11cc:	8082                	ret

000011ce <MotorPowerGet>:
    11ce:	1101                	addi	sp,sp,-32
    11d0:	cc22                	sw	s0,24(sp)
    11d2:	20000437          	lui	s0,0x20000
    11d6:	ca26                	sw	s1,20(sp)
    11d8:	c84a                	sw	s2,16(sp)
    11da:	c64e                	sw	s3,12(sp)
    11dc:	07040713          	addi	a4,s0,112 # 20000070 <COM_INFOR_GET>
    11e0:	ce06                	sw	ra,28(sp)
    11e2:	479d                	li	a5,7
    11e4:	00174683          	lbu	a3,1(a4)
    11e8:	00f70123          	sb	a5,2(a4)
    11ec:	00674783          	lbu	a5,6(a4)
    11f0:	07040413          	addi	s0,s0,112
    11f4:	40004937          	lui	s2,0x40004
    11f8:	8fb5                	xor	a5,a5,a3
    11fa:	00574683          	lbu	a3,5(a4)
    11fe:	400054b7          	lui	s1,0x40005
    1202:	00840993          	addi	s3,s0,8
    1206:	8fb5                	xor	a5,a5,a3
    1208:	00474683          	lbu	a3,4(a4)
    120c:	40090913          	addi	s2,s2,1024 # 40004400 <_eusrstack+0x1fffc400>
    1210:	c0048493          	addi	s1,s1,-1024 # 40004c00 <_eusrstack+0x1fffcc00>
    1214:	8fb5                	xor	a5,a5,a3
    1216:	00374683          	lbu	a3,3(a4)
    121a:	8fb5                	xor	a5,a5,a3
    121c:	0077c793          	xori	a5,a5,7
    1220:	00f703a3          	sb	a5,7(a4)
    1224:	00044583          	lbu	a1,0(s0)
    1228:	854a                	mv	a0,s2
    122a:	0405                	addi	s0,s0,1
    122c:	d10ff0ef          	jal	ra,73c <USARTx_SendByte>
    1230:	fff44583          	lbu	a1,-1(s0)
    1234:	8526                	mv	a0,s1
    1236:	d06ff0ef          	jal	ra,73c <USARTx_SendByte>
    123a:	fff44583          	lbu	a1,-1(s0)
    123e:	40005537          	lui	a0,0x40005
    1242:	cfaff0ef          	jal	ra,73c <USARTx_SendByte>
    1246:	fff44583          	lbu	a1,-1(s0)
    124a:	40002537          	lui	a0,0x40002
    124e:	ceeff0ef          	jal	ra,73c <USARTx_SendByte>
    1252:	4529                	li	a0,10
    1254:	19e010ef          	jal	ra,23f2 <Delayxms>
    1258:	fd3416e3          	bne	s0,s3,1224 <MotorPowerGet+0x56>
    125c:	40f2                	lw	ra,28(sp)
    125e:	4462                	lw	s0,24(sp)
    1260:	44d2                	lw	s1,20(sp)
    1262:	4942                	lw	s2,16(sp)
    1264:	49b2                	lw	s3,12(sp)
    1266:	6105                	addi	sp,sp,32
    1268:	8082                	ret

0000126a <NVIC_Configuration>:
    126a:	1101                	addi	sp,sp,-32
    126c:	4501                	li	a0,0
    126e:	ce06                	sw	ra,28(sp)
    1270:	cc22                	sw	s0,24(sp)
    1272:	59f000ef          	jal	ra,2010 <NVIC_PriorityGroupConfig>
    1276:	4405                	li	s0,1
    1278:	02900793          	li	a5,41
    127c:	0028                	addi	a0,sp,8
    127e:	00f11423          	sh	a5,8(sp)
    1282:	c622                	sw	s0,12(sp)
    1284:	00010523          	sb	zero,10(sp)
    1288:	58f000ef          	jal	ra,2016 <NVIC_Init>
    128c:	4501                	li	a0,0
    128e:	583000ef          	jal	ra,2010 <NVIC_PriorityGroupConfig>
    1292:	02c00793          	li	a5,44
    1296:	0028                	addi	a0,sp,8
    1298:	00f11423          	sh	a5,8(sp)
    129c:	00810523          	sb	s0,10(sp)
    12a0:	c622                	sw	s0,12(sp)
    12a2:	575000ef          	jal	ra,2016 <NVIC_Init>
    12a6:	4501                	li	a0,0
    12a8:	569000ef          	jal	ra,2010 <NVIC_PriorityGroupConfig>
    12ac:	02d00793          	li	a5,45
    12b0:	00f11423          	sh	a5,8(sp)
    12b4:	0028                	addi	a0,sp,8
    12b6:	4789                	li	a5,2
    12b8:	00f10523          	sb	a5,10(sp)
    12bc:	c622                	sw	s0,12(sp)
    12be:	559000ef          	jal	ra,2016 <NVIC_Init>
    12c2:	4501                	li	a0,0
    12c4:	54d000ef          	jal	ra,2010 <NVIC_PriorityGroupConfig>
    12c8:	02e00793          	li	a5,46
    12cc:	00f11423          	sh	a5,8(sp)
    12d0:	0028                	addi	a0,sp,8
    12d2:	478d                	li	a5,3
    12d4:	00f10523          	sb	a5,10(sp)
    12d8:	c622                	sw	s0,12(sp)
    12da:	53d000ef          	jal	ra,2016 <NVIC_Init>
    12de:	4501                	li	a0,0
    12e0:	531000ef          	jal	ra,2010 <NVIC_PriorityGroupConfig>
    12e4:	04200793          	li	a5,66
    12e8:	00f11423          	sh	a5,8(sp)
    12ec:	0028                	addi	a0,sp,8
    12ee:	4791                	li	a5,4
    12f0:	00f10523          	sb	a5,10(sp)
    12f4:	c622                	sw	s0,12(sp)
    12f6:	521000ef          	jal	ra,2016 <NVIC_Init>
    12fa:	4501                	li	a0,0
    12fc:	515000ef          	jal	ra,2010 <NVIC_PriorityGroupConfig>
    1300:	04600793          	li	a5,70
    1304:	00f11423          	sh	a5,8(sp)
    1308:	0028                	addi	a0,sp,8
    130a:	4795                	li	a5,5
    130c:	00f10523          	sb	a5,10(sp)
    1310:	c622                	sw	s0,12(sp)
    1312:	505000ef          	jal	ra,2016 <NVIC_Init>
    1316:	4501                	li	a0,0
    1318:	4f9000ef          	jal	ra,2010 <NVIC_PriorityGroupConfig>
    131c:	04700793          	li	a5,71
    1320:	00f11423          	sh	a5,8(sp)
    1324:	0028                	addi	a0,sp,8
    1326:	4799                	li	a5,6
    1328:	00f10523          	sb	a5,10(sp)
    132c:	c622                	sw	s0,12(sp)
    132e:	4e9000ef          	jal	ra,2016 <NVIC_Init>
    1332:	4501                	li	a0,0
    1334:	4dd000ef          	jal	ra,2010 <NVIC_PriorityGroupConfig>
    1338:	03c00793          	li	a5,60
    133c:	00f11423          	sh	a5,8(sp)
    1340:	0028                	addi	a0,sp,8
    1342:	479d                	li	a5,7
    1344:	00f10523          	sb	a5,10(sp)
    1348:	c622                	sw	s0,12(sp)
    134a:	4cd000ef          	jal	ra,2016 <NVIC_Init>
    134e:	4501                	li	a0,0
    1350:	4c1000ef          	jal	ra,2010 <NVIC_PriorityGroupConfig>
    1354:	03500793          	li	a5,53
    1358:	00f11423          	sh	a5,8(sp)
    135c:	0028                	addi	a0,sp,8
    135e:	47a1                	li	a5,8
    1360:	00f10523          	sb	a5,10(sp)
    1364:	c622                	sw	s0,12(sp)
    1366:	4b1000ef          	jal	ra,2016 <NVIC_Init>
    136a:	4501                	li	a0,0
    136c:	4a5000ef          	jal	ra,2010 <NVIC_PriorityGroupConfig>
    1370:	03600793          	li	a5,54
    1374:	00f11423          	sh	a5,8(sp)
    1378:	0028                	addi	a0,sp,8
    137a:	47a5                	li	a5,9
    137c:	00f10523          	sb	a5,10(sp)
    1380:	c622                	sw	s0,12(sp)
    1382:	495000ef          	jal	ra,2016 <NVIC_Init>
    1386:	4501                	li	a0,0
    1388:	489000ef          	jal	ra,2010 <NVIC_PriorityGroupConfig>
    138c:	03700793          	li	a5,55
    1390:	00f11423          	sh	a5,8(sp)
    1394:	0028                	addi	a0,sp,8
    1396:	47a9                	li	a5,10
    1398:	00f10523          	sb	a5,10(sp)
    139c:	c622                	sw	s0,12(sp)
    139e:	479000ef          	jal	ra,2016 <NVIC_Init>
    13a2:	4501                	li	a0,0
    13a4:	46d000ef          	jal	ra,2010 <NVIC_PriorityGroupConfig>
    13a8:	04400793          	li	a5,68
    13ac:	00f11423          	sh	a5,8(sp)
    13b0:	0028                	addi	a0,sp,8
    13b2:	47ad                	li	a5,11
    13b4:	00f10523          	sb	a5,10(sp)
    13b8:	c622                	sw	s0,12(sp)
    13ba:	45d000ef          	jal	ra,2016 <NVIC_Init>
    13be:	4501                	li	a0,0
    13c0:	451000ef          	jal	ra,2010 <NVIC_PriorityGroupConfig>
    13c4:	04500793          	li	a5,69
    13c8:	00f11423          	sh	a5,8(sp)
    13cc:	0028                	addi	a0,sp,8
    13ce:	47b1                	li	a5,12
    13d0:	00f10523          	sb	a5,10(sp)
    13d4:	c622                	sw	s0,12(sp)
    13d6:	441000ef          	jal	ra,2016 <NVIC_Init>
    13da:	4501                	li	a0,0
    13dc:	435000ef          	jal	ra,2010 <NVIC_PriorityGroupConfig>
    13e0:	05700793          	li	a5,87
    13e4:	00f11423          	sh	a5,8(sp)
    13e8:	0028                	addi	a0,sp,8
    13ea:	47b5                	li	a5,13
    13ec:	00f10523          	sb	a5,10(sp)
    13f0:	c622                	sw	s0,12(sp)
    13f2:	425000ef          	jal	ra,2016 <NVIC_Init>
    13f6:	4501                	li	a0,0
    13f8:	419000ef          	jal	ra,2010 <NVIC_PriorityGroupConfig>
    13fc:	05800793          	li	a5,88
    1400:	00f11423          	sh	a5,8(sp)
    1404:	0028                	addi	a0,sp,8
    1406:	47b9                	li	a5,14
    1408:	00f10523          	sb	a5,10(sp)
    140c:	c622                	sw	s0,12(sp)
    140e:	409000ef          	jal	ra,2016 <NVIC_Init>
    1412:	4501                	li	a0,0
    1414:	3fd000ef          	jal	ra,2010 <NVIC_PriorityGroupConfig>
    1418:	05900793          	li	a5,89
    141c:	00f11423          	sh	a5,8(sp)
    1420:	0028                	addi	a0,sp,8
    1422:	47c9                	li	a5,18
    1424:	c622                	sw	s0,12(sp)
    1426:	00f10523          	sb	a5,10(sp)
    142a:	3ed000ef          	jal	ra,2016 <NVIC_Init>
    142e:	40f2                	lw	ra,28(sp)
    1430:	4462                	lw	s0,24(sp)
    1432:	6105                	addi	sp,sp,32
    1434:	8082                	ret

00001436 <USART1_IRQHandler>:
    1436:	1141                	addi	sp,sp,-16
    1438:	c622                	sw	s0,12(sp)
    143a:	40014437          	lui	s0,0x40014
    143e:	52500593          	li	a1,1317
    1442:	80040513          	addi	a0,s0,-2048 # 40013800 <_eusrstack+0x2000b800>
    1446:	72d000ef          	jal	ra,2372 <USART_GetITStatus>
    144a:	cd09                	beqz	a0,1464 <USART1_IRQHandler+0x2e>
    144c:	52500593          	li	a1,1317
    1450:	80040513          	addi	a0,s0,-2048
    1454:	763000ef          	jal	ra,23b6 <USART_ClearITPendingBit>
    1458:	80040513          	addi	a0,s0,-2048
    145c:	6f3000ef          	jal	ra,234e <USART_ReceiveData>
    1460:	84a18623          	sb	a0,-1972(gp) # 200000bc <Usart1Data>
    1464:	4432                	lw	s0,12(sp)
    1466:	0141                	addi	sp,sp,16
    1468:	30200073          	mret

0000146c <USART2_IRQHandler>:
    146c:	1141                	addi	sp,sp,-16
    146e:	c622                	sw	s0,12(sp)
    1470:	40004437          	lui	s0,0x40004
    1474:	52500593          	li	a1,1317
    1478:	40040513          	addi	a0,s0,1024 # 40004400 <_eusrstack+0x1fffc400>
    147c:	6f7000ef          	jal	ra,2372 <USART_GetITStatus>
    1480:	cd09                	beqz	a0,149a <USART2_IRQHandler+0x2e>
    1482:	52500593          	li	a1,1317
    1486:	40040513          	addi	a0,s0,1024
    148a:	72d000ef          	jal	ra,23b6 <USART_ClearITPendingBit>
    148e:	40040513          	addi	a0,s0,1024
    1492:	6bd000ef          	jal	ra,234e <USART_ReceiveData>
    1496:	86a18c23          	sb	a0,-1928(gp) # 200000e8 <UsartData2>
    149a:	84e18793          	addi	a5,gp,-1970 # 200000be <Usart2_Status>
    149e:	0007c703          	lbu	a4,0(a5) # 1000 <MotorSpeedINIT+0x3a>
    14a2:	4685                	li	a3,1
    14a4:	04d70363          	beq	a4,a3,14ea <USART2_IRQHandler+0x7e>
    14a8:	cb19                	beqz	a4,14be <USART2_IRQHandler+0x52>
    14aa:	4689                	li	a3,2
    14ac:	06d70063          	beq	a4,a3,150c <USART2_IRQHandler+0xa0>
    14b0:	468d                	li	a3,3
    14b2:	06d70a63          	beq	a4,a3,1526 <USART2_IRQHandler+0xba>
    14b6:	4432                	lw	s0,12(sp)
    14b8:	0141                	addi	sp,sp,16
    14ba:	30200073          	mret
    14be:	8781c603          	lbu	a2,-1928(gp) # 200000e8 <UsartData2>
    14c2:	0a500713          	li	a4,165
    14c6:	fee618e3          	bne	a2,a4,14b6 <USART2_IRQHandler+0x4a>
    14ca:	84d18713          	addi	a4,gp,-1971 # 200000bd <Usart2_Index>
    14ce:	00074603          	lbu	a2,0(a4)
    14d2:	00d78023          	sb	a3,0(a5)
    14d6:	85018793          	addi	a5,gp,-1968 # 200000c0 <Usart2_buf>
    14da:	97b2                	add	a5,a5,a2
    14dc:	fa500613          	li	a2,-91
    14e0:	00c78023          	sb	a2,0(a5)
    14e4:	00d70023          	sb	a3,0(a4)
    14e8:	b7f9                	j	14b6 <USART2_IRQHandler+0x4a>
    14ea:	84d18693          	addi	a3,gp,-1971 # 200000bd <Usart2_Index>
    14ee:	0006c603          	lbu	a2,0(a3)
    14f2:	85018713          	addi	a4,gp,-1968 # 200000c0 <Usart2_buf>
    14f6:	9732                	add	a4,a4,a2
    14f8:	8781c603          	lbu	a2,-1928(gp) # 200000e8 <UsartData2>
    14fc:	00c70023          	sb	a2,0(a4)
    1500:	4709                	li	a4,2
    1502:	00e68023          	sb	a4,0(a3)
    1506:	00e78023          	sb	a4,0(a5)
    150a:	b775                	j	14b6 <USART2_IRQHandler+0x4a>
    150c:	84d18693          	addi	a3,gp,-1971 # 200000bd <Usart2_Index>
    1510:	0006c603          	lbu	a2,0(a3)
    1514:	85018713          	addi	a4,gp,-1968 # 200000c0 <Usart2_buf>
    1518:	9732                	add	a4,a4,a2
    151a:	8781c603          	lbu	a2,-1928(gp) # 200000e8 <UsartData2>
    151e:	00c70023          	sb	a2,0(a4)
    1522:	470d                	li	a4,3
    1524:	bff9                	j	1502 <USART2_IRQHandler+0x96>
    1526:	8781c503          	lbu	a0,-1928(gp) # 200000e8 <UsartData2>
    152a:	85018713          	addi	a4,gp,-1968 # 200000c0 <Usart2_buf>
    152e:	00274683          	lbu	a3,2(a4)
    1532:	00174583          	lbu	a1,1(a4)
    1536:	84418613          	addi	a2,gp,-1980 # 200000b4 <Get_Motor1_Data>
    153a:	8db5                	xor	a1,a1,a3
    153c:	84d18693          	addi	a3,gp,-1971 # 200000bd <Usart2_Index>
    1540:	02a59863          	bne	a1,a0,1570 <USART2_IRQHandler+0x104>
    1544:	0006c503          	lbu	a0,0(a3)
    1548:	00078023          	sb	zero,0(a5)
    154c:	00068023          	sb	zero,0(a3)
    1550:	953a                	add	a0,a0,a4
    1552:	00b50023          	sb	a1,0(a0) # 40002000 <_eusrstack+0x1fffa000>
    1556:	00174783          	lbu	a5,1(a4)
    155a:	00274683          	lbu	a3,2(a4)
    155e:	00374703          	lbu	a4,3(a4)
    1562:	07a2                	slli	a5,a5,0x8
    1564:	97b6                	add	a5,a5,a3
    1566:	00f61023          	sh	a5,0(a2)
    156a:	84e1a023          	sw	a4,-1984(gp) # 200000b0 <_edata>
    156e:	b7a1                	j	14b6 <USART2_IRQHandler+0x4a>
    1570:	00068023          	sb	zero,0(a3)
    1574:	00078023          	sb	zero,0(a5)
    1578:	00061023          	sh	zero,0(a2)
    157c:	bf2d                	j	14b6 <USART2_IRQHandler+0x4a>

0000157e <USART3_IRQHandler>:
    157e:	1141                	addi	sp,sp,-16
    1580:	c622                	sw	s0,12(sp)
    1582:	40005437          	lui	s0,0x40005
    1586:	52500593          	li	a1,1317
    158a:	80040513          	addi	a0,s0,-2048 # 40004800 <_eusrstack+0x1fffc800>
    158e:	5e5000ef          	jal	ra,2372 <USART_GetITStatus>
    1592:	cd09                	beqz	a0,15ac <USART3_IRQHandler+0x2e>
    1594:	52500593          	li	a1,1317
    1598:	80040513          	addi	a0,s0,-2048
    159c:	61b000ef          	jal	ra,23b6 <USART_ClearITPendingBit>
    15a0:	80040513          	addi	a0,s0,-2048
    15a4:	5ab000ef          	jal	ra,234e <USART_ReceiveData>
    15a8:	84a18a23          	sb	a0,-1964(gp) # 200000c4 <Usart3Data>
    15ac:	4432                	lw	s0,12(sp)
    15ae:	0141                	addi	sp,sp,16
    15b0:	30200073          	mret

000015b4 <UART4_IRQHandler>:
    15b4:	1141                	addi	sp,sp,-16
    15b6:	c622                	sw	s0,12(sp)
    15b8:	40005437          	lui	s0,0x40005
    15bc:	52500593          	li	a1,1317
    15c0:	c0040513          	addi	a0,s0,-1024 # 40004c00 <_eusrstack+0x1fffcc00>
    15c4:	5af000ef          	jal	ra,2372 <USART_GetITStatus>
    15c8:	cd09                	beqz	a0,15e2 <UART4_IRQHandler+0x2e>
    15ca:	52500593          	li	a1,1317
    15ce:	c0040513          	addi	a0,s0,-1024
    15d2:	5e5000ef          	jal	ra,23b6 <USART_ClearITPendingBit>
    15d6:	c0040513          	addi	a0,s0,-1024
    15da:	575000ef          	jal	ra,234e <USART_ReceiveData>
    15de:	86a18ca3          	sb	a0,-1927(gp) # 200000e9 <UsartData4>
    15e2:	85618713          	addi	a4,gp,-1962 # 200000c6 <Usart4_Status>
    15e6:	00074783          	lbu	a5,0(a4)
    15ea:	4685                	li	a3,1
    15ec:	04d78363          	beq	a5,a3,1632 <UART4_IRQHandler+0x7e>
    15f0:	cb99                	beqz	a5,1606 <UART4_IRQHandler+0x52>
    15f2:	4689                	li	a3,2
    15f4:	06d78063          	beq	a5,a3,1654 <UART4_IRQHandler+0xa0>
    15f8:	468d                	li	a3,3
    15fa:	06d78a63          	beq	a5,a3,166e <UART4_IRQHandler+0xba>
    15fe:	4432                	lw	s0,12(sp)
    1600:	0141                	addi	sp,sp,16
    1602:	30200073          	mret
    1606:	8791c603          	lbu	a2,-1927(gp) # 200000e9 <UsartData4>
    160a:	0a500793          	li	a5,165
    160e:	fef618e3          	bne	a2,a5,15fe <UART4_IRQHandler+0x4a>
    1612:	00d70023          	sb	a3,0(a4)
    1616:	85518713          	addi	a4,gp,-1963 # 200000c5 <Usart4_Index>
    161a:	00074603          	lbu	a2,0(a4)
    161e:	85818793          	addi	a5,gp,-1960 # 200000c8 <Usart4_buf>
    1622:	97b2                	add	a5,a5,a2
    1624:	fa500613          	li	a2,-91
    1628:	00c78023          	sb	a2,0(a5)
    162c:	00d70023          	sb	a3,0(a4)
    1630:	b7f9                	j	15fe <UART4_IRQHandler+0x4a>
    1632:	85518693          	addi	a3,gp,-1963 # 200000c5 <Usart4_Index>
    1636:	0006c603          	lbu	a2,0(a3)
    163a:	85818793          	addi	a5,gp,-1960 # 200000c8 <Usart4_buf>
    163e:	97b2                	add	a5,a5,a2
    1640:	8791c603          	lbu	a2,-1927(gp) # 200000e9 <UsartData4>
    1644:	00c78023          	sb	a2,0(a5)
    1648:	4789                	li	a5,2
    164a:	00f68023          	sb	a5,0(a3)
    164e:	00f70023          	sb	a5,0(a4)
    1652:	b775                	j	15fe <UART4_IRQHandler+0x4a>
    1654:	85518693          	addi	a3,gp,-1963 # 200000c5 <Usart4_Index>
    1658:	0006c603          	lbu	a2,0(a3)
    165c:	85818793          	addi	a5,gp,-1960 # 200000c8 <Usart4_buf>
    1660:	97b2                	add	a5,a5,a2
    1662:	8791c603          	lbu	a2,-1927(gp) # 200000e9 <UsartData4>
    1666:	00c78023          	sb	a2,0(a5)
    166a:	478d                	li	a5,3
    166c:	bff9                	j	164a <UART4_IRQHandler+0x96>
    166e:	8791c503          	lbu	a0,-1927(gp) # 200000e9 <UsartData4>
    1672:	85818793          	addi	a5,gp,-1960 # 200000c8 <Usart4_buf>
    1676:	0027c683          	lbu	a3,2(a5)
    167a:	0017c583          	lbu	a1,1(a5)
    167e:	84818613          	addi	a2,gp,-1976 # 200000b8 <Get_Motor3_Data>
    1682:	8db5                	xor	a1,a1,a3
    1684:	85518693          	addi	a3,gp,-1963 # 200000c5 <Usart4_Index>
    1688:	02a59663          	bne	a1,a0,16b4 <UART4_IRQHandler+0x100>
    168c:	0006c503          	lbu	a0,0(a3)
    1690:	00070023          	sb	zero,0(a4)
    1694:	00068023          	sb	zero,0(a3)
    1698:	953e                	add	a0,a0,a5
    169a:	00b50023          	sb	a1,0(a0)
    169e:	0017c703          	lbu	a4,1(a5)
    16a2:	0027c683          	lbu	a3,2(a5)
    16a6:	0007a023          	sw	zero,0(a5)
    16aa:	0722                	slli	a4,a4,0x8
    16ac:	9736                	add	a4,a4,a3
    16ae:	00e61023          	sh	a4,0(a2)
    16b2:	b7b1                	j	15fe <UART4_IRQHandler+0x4a>
    16b4:	0007a023          	sw	zero,0(a5)
    16b8:	00068023          	sb	zero,0(a3)
    16bc:	00070023          	sb	zero,0(a4)
    16c0:	00061023          	sh	zero,0(a2)
    16c4:	bf2d                	j	15fe <UART4_IRQHandler+0x4a>

000016c6 <UART5_IRQHandler>:
    16c6:	52500593          	li	a1,1317
    16ca:	40005537          	lui	a0,0x40005
    16ce:	4a5000ef          	jal	ra,2372 <USART_GetITStatus>
    16d2:	cd09                	beqz	a0,16ec <UART5_IRQHandler+0x26>
    16d4:	52500593          	li	a1,1317
    16d8:	40005537          	lui	a0,0x40005
    16dc:	4db000ef          	jal	ra,23b6 <USART_ClearITPendingBit>
    16e0:	40005537          	lui	a0,0x40005
    16e4:	46b000ef          	jal	ra,234e <USART_ReceiveData>
    16e8:	86a18d23          	sb	a0,-1926(gp) # 200000ea <UsartData5>
    16ec:	85d18713          	addi	a4,gp,-1955 # 200000cd <Usart5_Status>
    16f0:	00074783          	lbu	a5,0(a4)
    16f4:	4685                	li	a3,1
    16f6:	04d78163          	beq	a5,a3,1738 <UART5_IRQHandler+0x72>
    16fa:	cb89                	beqz	a5,170c <UART5_IRQHandler+0x46>
    16fc:	4689                	li	a3,2
    16fe:	04d78e63          	beq	a5,a3,175a <UART5_IRQHandler+0x94>
    1702:	468d                	li	a3,3
    1704:	06d78863          	beq	a5,a3,1774 <UART5_IRQHandler+0xae>
    1708:	30200073          	mret
    170c:	87a1c603          	lbu	a2,-1926(gp) # 200000ea <UsartData5>
    1710:	0a500793          	li	a5,165
    1714:	fef61ae3          	bne	a2,a5,1708 <UART5_IRQHandler+0x42>
    1718:	00d70023          	sb	a3,0(a4)
    171c:	85c18713          	addi	a4,gp,-1956 # 200000cc <Usart5_Index>
    1720:	00074603          	lbu	a2,0(a4)
    1724:	86018793          	addi	a5,gp,-1952 # 200000d0 <Usart5_buf>
    1728:	97b2                	add	a5,a5,a2
    172a:	fa500613          	li	a2,-91
    172e:	00c78023          	sb	a2,0(a5)
    1732:	00d70023          	sb	a3,0(a4)
    1736:	bfc9                	j	1708 <UART5_IRQHandler+0x42>
    1738:	85c18693          	addi	a3,gp,-1956 # 200000cc <Usart5_Index>
    173c:	0006c603          	lbu	a2,0(a3)
    1740:	86018793          	addi	a5,gp,-1952 # 200000d0 <Usart5_buf>
    1744:	97b2                	add	a5,a5,a2
    1746:	87a1c603          	lbu	a2,-1926(gp) # 200000ea <UsartData5>
    174a:	00c78023          	sb	a2,0(a5)
    174e:	4789                	li	a5,2
    1750:	00f68023          	sb	a5,0(a3)
    1754:	00f70023          	sb	a5,0(a4)
    1758:	bf45                	j	1708 <UART5_IRQHandler+0x42>
    175a:	85c18693          	addi	a3,gp,-1956 # 200000cc <Usart5_Index>
    175e:	0006c603          	lbu	a2,0(a3)
    1762:	86018793          	addi	a5,gp,-1952 # 200000d0 <Usart5_buf>
    1766:	97b2                	add	a5,a5,a2
    1768:	87a1c603          	lbu	a2,-1926(gp) # 200000ea <UsartData5>
    176c:	00c78023          	sb	a2,0(a5)
    1770:	478d                	li	a5,3
    1772:	bff9                	j	1750 <UART5_IRQHandler+0x8a>
    1774:	87a1c503          	lbu	a0,-1926(gp) # 200000ea <UsartData5>
    1778:	86018793          	addi	a5,gp,-1952 # 200000d0 <Usart5_buf>
    177c:	0027c683          	lbu	a3,2(a5)
    1780:	0017c583          	lbu	a1,1(a5)
    1784:	84a18613          	addi	a2,gp,-1974 # 200000ba <Get_Motor4_Data>
    1788:	8db5                	xor	a1,a1,a3
    178a:	85c18693          	addi	a3,gp,-1956 # 200000cc <Usart5_Index>
    178e:	02a59663          	bne	a1,a0,17ba <UART5_IRQHandler+0xf4>
    1792:	0006c503          	lbu	a0,0(a3)
    1796:	00070023          	sb	zero,0(a4)
    179a:	00068023          	sb	zero,0(a3)
    179e:	953e                	add	a0,a0,a5
    17a0:	00b50023          	sb	a1,0(a0) # 40005000 <_eusrstack+0x1fffd000>
    17a4:	0017c703          	lbu	a4,1(a5)
    17a8:	0027c683          	lbu	a3,2(a5)
    17ac:	0007a023          	sw	zero,0(a5)
    17b0:	0722                	slli	a4,a4,0x8
    17b2:	9736                	add	a4,a4,a3
    17b4:	00e61023          	sh	a4,0(a2)
    17b8:	bf81                	j	1708 <UART5_IRQHandler+0x42>
    17ba:	0007a023          	sw	zero,0(a5)
    17be:	00068023          	sb	zero,0(a3)
    17c2:	00070023          	sb	zero,0(a4)
    17c6:	00061023          	sh	zero,0(a2)
    17ca:	bf3d                	j	1708 <UART5_IRQHandler+0x42>

000017cc <UART6_IRQHandler>:
    17cc:	1141                	addi	sp,sp,-16
    17ce:	c622                	sw	s0,12(sp)
    17d0:	c426                	sw	s1,8(sp)
    17d2:	fc0ff0ef          	jal	ra,f92 <LED1Reverse>
    17d6:	400024b7          	lui	s1,0x40002
    17da:	52500593          	li	a1,1317
    17de:	80048513          	addi	a0,s1,-2048 # 40001800 <_eusrstack+0x1fff9800>
    17e2:	391000ef          	jal	ra,2372 <USART_GetITStatus>
    17e6:	87b18413          	addi	s0,gp,-1925 # 200000eb <UsartData6>
    17ea:	cd09                	beqz	a0,1804 <UART6_IRQHandler+0x38>
    17ec:	52500593          	li	a1,1317
    17f0:	80048513          	addi	a0,s1,-2048
    17f4:	3c3000ef          	jal	ra,23b6 <USART_ClearITPendingBit>
    17f8:	80048513          	addi	a0,s1,-2048
    17fc:	353000ef          	jal	ra,234e <USART_ReceiveData>
    1800:	00a40023          	sb	a0,0(s0)
    1804:	00044703          	lbu	a4,0(s0)
    1808:	86818793          	addi	a5,gp,-1944 # 200000d8 <Usart6_buf>
    180c:	00e78023          	sb	a4,0(a5)
    1810:	00e780a3          	sb	a4,1(a5)
    1814:	00e78123          	sb	a4,2(a5)
    1818:	00e781a3          	sb	a4,3(a5)
    181c:	00e78223          	sb	a4,4(a5)
    1820:	00e782a3          	sb	a4,5(a5)
    1824:	4699                	li	a3,6
    1826:	86d18223          	sb	a3,-1948(gp) # 200000d4 <Usart6_Status>
    182a:	4785                	li	a5,1
    182c:	00f71463          	bne	a4,a5,1834 <UART6_IRQHandler+0x68>
    1830:	f96ff0ef          	jal	ra,fc6 <MotorSpeedINIT>
    1834:	4432                	lw	s0,12(sp)
    1836:	44a2                	lw	s1,8(sp)
    1838:	0141                	addi	sp,sp,16
    183a:	30200073          	mret

0000183e <UART7_IRQHandler>:
    183e:	1141                	addi	sp,sp,-16
    1840:	c622                	sw	s0,12(sp)
    1842:	40002437          	lui	s0,0x40002
    1846:	52500593          	li	a1,1317
    184a:	c0040513          	addi	a0,s0,-1024 # 40001c00 <_eusrstack+0x1fff9c00>
    184e:	325000ef          	jal	ra,2372 <USART_GetITStatus>
    1852:	cd09                	beqz	a0,186c <UART7_IRQHandler+0x2e>
    1854:	52500593          	li	a1,1317
    1858:	c0040513          	addi	a0,s0,-1024
    185c:	35b000ef          	jal	ra,23b6 <USART_ClearITPendingBit>
    1860:	c0040513          	addi	a0,s0,-1024
    1864:	2eb000ef          	jal	ra,234e <USART_ReceiveData>
    1868:	86a18723          	sb	a0,-1938(gp) # 200000de <Usart7Data>
    186c:	4432                	lw	s0,12(sp)
    186e:	0141                	addi	sp,sp,16
    1870:	30200073          	mret

00001874 <UART8_IRQHandler>:
    1874:	52500593          	li	a1,1317
    1878:	40002537          	lui	a0,0x40002
    187c:	2f7000ef          	jal	ra,2372 <USART_GetITStatus>
    1880:	cd09                	beqz	a0,189a <UART8_IRQHandler+0x26>
    1882:	52500593          	li	a1,1317
    1886:	40002537          	lui	a0,0x40002
    188a:	32d000ef          	jal	ra,23b6 <USART_ClearITPendingBit>
    188e:	40002537          	lui	a0,0x40002
    1892:	2bd000ef          	jal	ra,234e <USART_ReceiveData>
    1896:	86a18e23          	sb	a0,-1924(gp) # 200000ec <UsartData8>
    189a:	87018713          	addi	a4,gp,-1936 # 200000e0 <Usart8_Status>
    189e:	00074783          	lbu	a5,0(a4)
    18a2:	4685                	li	a3,1
    18a4:	04d78163          	beq	a5,a3,18e6 <UART8_IRQHandler+0x72>
    18a8:	cb89                	beqz	a5,18ba <UART8_IRQHandler+0x46>
    18aa:	4689                	li	a3,2
    18ac:	04d78e63          	beq	a5,a3,1908 <UART8_IRQHandler+0x94>
    18b0:	468d                	li	a3,3
    18b2:	06d78863          	beq	a5,a3,1922 <UART8_IRQHandler+0xae>
    18b6:	30200073          	mret
    18ba:	87c1c603          	lbu	a2,-1924(gp) # 200000ec <UsartData8>
    18be:	0a500793          	li	a5,165
    18c2:	fef61ae3          	bne	a2,a5,18b6 <UART8_IRQHandler+0x42>
    18c6:	00d70023          	sb	a3,0(a4)
    18ca:	86f18713          	addi	a4,gp,-1937 # 200000df <Usart8_Index>
    18ce:	00074603          	lbu	a2,0(a4)
    18d2:	87418793          	addi	a5,gp,-1932 # 200000e4 <Usart8_buf>
    18d6:	97b2                	add	a5,a5,a2
    18d8:	fa500613          	li	a2,-91
    18dc:	00c78023          	sb	a2,0(a5)
    18e0:	00d70023          	sb	a3,0(a4)
    18e4:	bfc9                	j	18b6 <UART8_IRQHandler+0x42>
    18e6:	86f18693          	addi	a3,gp,-1937 # 200000df <Usart8_Index>
    18ea:	0006c603          	lbu	a2,0(a3)
    18ee:	87418793          	addi	a5,gp,-1932 # 200000e4 <Usart8_buf>
    18f2:	97b2                	add	a5,a5,a2
    18f4:	87c1c603          	lbu	a2,-1924(gp) # 200000ec <UsartData8>
    18f8:	00c78023          	sb	a2,0(a5)
    18fc:	4789                	li	a5,2
    18fe:	00f68023          	sb	a5,0(a3)
    1902:	00f70023          	sb	a5,0(a4)
    1906:	bf45                	j	18b6 <UART8_IRQHandler+0x42>
    1908:	86f18693          	addi	a3,gp,-1937 # 200000df <Usart8_Index>
    190c:	0006c603          	lbu	a2,0(a3)
    1910:	87418793          	addi	a5,gp,-1932 # 200000e4 <Usart8_buf>
    1914:	97b2                	add	a5,a5,a2
    1916:	87c1c603          	lbu	a2,-1924(gp) # 200000ec <UsartData8>
    191a:	00c78023          	sb	a2,0(a5)
    191e:	478d                	li	a5,3
    1920:	bff9                	j	18fe <UART8_IRQHandler+0x8a>
    1922:	87c1c503          	lbu	a0,-1924(gp) # 200000ec <UsartData8>
    1926:	87418793          	addi	a5,gp,-1932 # 200000e4 <Usart8_buf>
    192a:	0027c683          	lbu	a3,2(a5)
    192e:	0017c583          	lbu	a1,1(a5)
    1932:	84618613          	addi	a2,gp,-1978 # 200000b6 <Get_Motor2_Data>
    1936:	8db5                	xor	a1,a1,a3
    1938:	86f18693          	addi	a3,gp,-1937 # 200000df <Usart8_Index>
    193c:	02a59663          	bne	a1,a0,1968 <UART8_IRQHandler+0xf4>
    1940:	0006c503          	lbu	a0,0(a3)
    1944:	00070023          	sb	zero,0(a4)
    1948:	00068023          	sb	zero,0(a3)
    194c:	953e                	add	a0,a0,a5
    194e:	00b50023          	sb	a1,0(a0) # 40002000 <_eusrstack+0x1fffa000>
    1952:	0017c703          	lbu	a4,1(a5)
    1956:	0027c683          	lbu	a3,2(a5)
    195a:	0007a023          	sw	zero,0(a5)
    195e:	0722                	slli	a4,a4,0x8
    1960:	9736                	add	a4,a4,a3
    1962:	00e61023          	sh	a4,0(a2)
    1966:	bf81                	j	18b6 <UART8_IRQHandler+0x42>
    1968:	0007a023          	sw	zero,0(a5)
    196c:	00068023          	sb	zero,0(a3)
    1970:	00070023          	sb	zero,0(a4)
    1974:	00061023          	sh	zero,0(a2)
    1978:	bf3d                	j	18b6 <UART8_IRQHandler+0x42>

0000197a <NMI_Handler>:
    197a:	30200073          	mret

0000197e <HardFault_Handler>:
    197e:	a001                	j	197e <HardFault_Handler>

00001980 <System_Init>:
    1980:	1141                	addi	sp,sp,-16
    1982:	c606                	sw	ra,12(sp)
    1984:	8e7ff0ef          	jal	ra,126a <NVIC_Configuration>
    1988:	245000ef          	jal	ra,23cc <Delay_Init>
    198c:	da4ff0ef          	jal	ra,f30 <LEDInit>
    1990:	9aeff0ef          	jal	ra,b3e <OLED12864_Init>
    1994:	cfcff0ef          	jal	ra,e90 <Key_Init>
    1998:	869fe0ef          	jal	ra,200 <USART1_Configuration>
    199c:	90bfe0ef          	jal	ra,2a6 <USART2_Configuration>
    19a0:	9b1fe0ef          	jal	ra,350 <USART3_Configuration>
    19a4:	a5dfe0ef          	jal	ra,400 <USART4_Configuration>
    19a8:	b01fe0ef          	jal	ra,4a8 <USART5_Configuration>
    19ac:	badfe0ef          	jal	ra,558 <USART6_Configuration>
    19b0:	c4bfe0ef          	jal	ra,5fa <USART7_Configuration>
    19b4:	40b2                	lw	ra,12(sp)
    19b6:	0141                	addi	sp,sp,16
    19b8:	ce5fe06f          	j	69c <USART8_Configuration>

000019bc <main>:
    19bc:	715d                	addi	sp,sp,-80
    19be:	c686                	sw	ra,76(sp)
    19c0:	c4a2                	sw	s0,72(sp)
    19c2:	c2a6                	sw	s1,68(sp)
    19c4:	c0ca                	sw	s2,64(sp)
    19c6:	de4e                	sw	s3,60(sp)
    19c8:	dc52                	sw	s4,56(sp)
    19ca:	d462                	sw	s8,40(sp)
    19cc:	da56                	sw	s5,52(sp)
    19ce:	d85a                	sw	s6,48(sp)
    19d0:	d65e                	sw	s7,44(sp)
    19d2:	d266                	sw	s9,36(sp)
    19d4:	d06a                	sw	s10,32(sp)
    19d6:	ce6e                	sw	s11,28(sp)
    19d8:	3765                	jal	1980 <System_Init>
    19da:	000036b7          	lui	a3,0x3
    19de:	54c68693          	addi	a3,a3,1356 # 354c <Font6x8+0x24c>
    19e2:	4601                	li	a2,0
    19e4:	4581                	li	a1,0
    19e6:	4501                	li	a0,0
    19e8:	b26ff0ef          	jal	ra,d0e <OLED12864_DisStr>
    19ec:	000036b7          	lui	a3,0x3
    19f0:	55068693          	addi	a3,a3,1360 # 3550 <Font6x8+0x250>
    19f4:	4601                	li	a2,0
    19f6:	4581                	li	a1,0
    19f8:	02800513          	li	a0,40
    19fc:	b12ff0ef          	jal	ra,d0e <OLED12864_DisStr>
    1a00:	00003a37          	lui	s4,0x3
    1a04:	554a0693          	addi	a3,s4,1364 # 3554 <Font6x8+0x254>
    1a08:	4601                	li	a2,0
    1a0a:	45a1                	li	a1,8
    1a0c:	4501                	li	a0,0
    1a0e:	b00ff0ef          	jal	ra,d0e <OLED12864_DisStr>
    1a12:	00003437          	lui	s0,0x3
    1a16:	55840693          	addi	a3,s0,1368 # 3558 <Font6x8+0x258>
    1a1a:	4601                	li	a2,0
    1a1c:	45a1                	li	a1,8
    1a1e:	04800513          	li	a0,72
    1a22:	aecff0ef          	jal	ra,d0e <OLED12864_DisStr>
    1a26:	000039b7          	lui	s3,0x3
    1a2a:	55c98693          	addi	a3,s3,1372 # 355c <Font6x8+0x25c>
    1a2e:	4601                	li	a2,0
    1a30:	45c1                	li	a1,16
    1a32:	4501                	li	a0,0
    1a34:	adaff0ef          	jal	ra,d0e <OLED12864_DisStr>
    1a38:	55840693          	addi	a3,s0,1368
    1a3c:	4601                	li	a2,0
    1a3e:	45c1                	li	a1,16
    1a40:	04800513          	li	a0,72
    1a44:	acaff0ef          	jal	ra,d0e <OLED12864_DisStr>
    1a48:	00003937          	lui	s2,0x3
    1a4c:	56090693          	addi	a3,s2,1376 # 3560 <Font6x8+0x260>
    1a50:	4601                	li	a2,0
    1a52:	45e1                	li	a1,24
    1a54:	4501                	li	a0,0
    1a56:	ab8ff0ef          	jal	ra,d0e <OLED12864_DisStr>
    1a5a:	55840693          	addi	a3,s0,1368
    1a5e:	4601                	li	a2,0
    1a60:	45e1                	li	a1,24
    1a62:	04800513          	li	a0,72
    1a66:	aa8ff0ef          	jal	ra,d0e <OLED12864_DisStr>
    1a6a:	000034b7          	lui	s1,0x3
    1a6e:	56448693          	addi	a3,s1,1380 # 3564 <Font6x8+0x264>
    1a72:	4601                	li	a2,0
    1a74:	02000593          	li	a1,32
    1a78:	4501                	li	a0,0
    1a7a:	a94ff0ef          	jal	ra,d0e <OLED12864_DisStr>
    1a7e:	55840693          	addi	a3,s0,1368
    1a82:	4601                	li	a2,0
    1a84:	02000593          	li	a1,32
    1a88:	04800513          	li	a0,72
    1a8c:	a82ff0ef          	jal	ra,d0e <OLED12864_DisStr>
    1a90:	554a0693          	addi	a3,s4,1364
    1a94:	4601                	li	a2,0
    1a96:	03000593          	li	a1,48
    1a9a:	4501                	li	a0,0
    1a9c:	a72ff0ef          	jal	ra,d0e <OLED12864_DisStr>
    1aa0:	55c98693          	addi	a3,s3,1372
    1aa4:	4601                	li	a2,0
    1aa6:	03000593          	li	a1,48
    1aaa:	04000513          	li	a0,64
    1aae:	a60ff0ef          	jal	ra,d0e <OLED12864_DisStr>
    1ab2:	56090693          	addi	a3,s2,1376
    1ab6:	4601                	li	a2,0
    1ab8:	03800593          	li	a1,56
    1abc:	4501                	li	a0,0
    1abe:	a50ff0ef          	jal	ra,d0e <OLED12864_DisStr>
    1ac2:	56448693          	addi	a3,s1,1380
    1ac6:	4601                	li	a2,0
    1ac8:	03800593          	li	a1,56
    1acc:	04000513          	li	a0,64
    1ad0:	a3eff0ef          	jal	ra,d0e <OLED12864_DisStr>
    1ad4:	000037b7          	lui	a5,0x3
    1ad8:	5447ac03          	lw	s8,1348(a5) # 3544 <Font6x8+0x244>
    1adc:	000037b7          	lui	a5,0x3
    1ae0:	5487a783          	lw	a5,1352(a5) # 3548 <Font6x8+0x248>
    1ae4:	4401                	li	s0,0
    1ae6:	c63e                	sw	a5,12(sp)
    1ae8:	8281a683          	lw	a3,-2008(gp) # 20000098 <Xdata>
    1aec:	4601                	li	a2,0
    1aee:	4581                	li	a1,0
    1af0:	4529                	li	a0,10
    1af2:	a7eff0ef          	jal	ra,d70 <OLED12864_Format1>
    1af6:	82c1a683          	lw	a3,-2004(gp) # 2000009c <Ydata>
    1afa:	4601                	li	a2,0
    1afc:	4581                	li	a1,0
    1afe:	03200513          	li	a0,50
    1b02:	a6eff0ef          	jal	ra,d70 <OLED12864_Format1>
    1b06:	87e18713          	addi	a4,gp,-1922 # 200000ee <Motor1_Current>
    1b0a:	00075683          	lhu	a3,0(a4)
    1b0e:	4601                	li	a2,0
    1b10:	45a1                	li	a1,8
    1b12:	4549                	li	a0,18
    1b14:	aecff0ef          	jal	ra,e00 <OLED12864_Format4>
    1b18:	81a18d93          	addi	s11,gp,-2022 # 2000008a <Motor1_Temp>
    1b1c:	000dd683          	lhu	a3,0(s11)
    1b20:	4601                	li	a2,0
    1b22:	45a1                	li	a1,8
    1b24:	05400513          	li	a0,84
    1b28:	a90ff0ef          	jal	ra,db8 <OLED12864_Format3>
    1b2c:	88018793          	addi	a5,gp,-1920 # 200000f0 <Motor2_Current>
    1b30:	0007d683          	lhu	a3,0(a5)
    1b34:	4601                	li	a2,0
    1b36:	45c1                	li	a1,16
    1b38:	4549                	li	a0,18
    1b3a:	ac6ff0ef          	jal	ra,e00 <OLED12864_Format4>
    1b3e:	81e18d13          	addi	s10,gp,-2018 # 2000008e <Motor2_Temp>
    1b42:	000d5683          	lhu	a3,0(s10)
    1b46:	4601                	li	a2,0
    1b48:	45c1                	li	a1,16
    1b4a:	05400513          	li	a0,84
    1b4e:	a6aff0ef          	jal	ra,db8 <OLED12864_Format3>
    1b52:	88218b13          	addi	s6,gp,-1918 # 200000f2 <Motor3_Current>
    1b56:	000b5683          	lhu	a3,0(s6)
    1b5a:	4601                	li	a2,0
    1b5c:	45e1                	li	a1,24
    1b5e:	4549                	li	a0,18
    1b60:	aa0ff0ef          	jal	ra,e00 <OLED12864_Format4>
    1b64:	82218c93          	addi	s9,gp,-2014 # 20000092 <Motor3_Temp>
    1b68:	000cd683          	lhu	a3,0(s9)
    1b6c:	4601                	li	a2,0
    1b6e:	45e1                	li	a1,24
    1b70:	05400513          	li	a0,84
    1b74:	a44ff0ef          	jal	ra,db8 <OLED12864_Format3>
    1b78:	88418a93          	addi	s5,gp,-1916 # 200000f4 <Motor4_Current>
    1b7c:	000ad683          	lhu	a3,0(s5)
    1b80:	4601                	li	a2,0
    1b82:	02000593          	li	a1,32
    1b86:	4549                	li	a0,18
    1b88:	a78ff0ef          	jal	ra,e00 <OLED12864_Format4>
    1b8c:	82618813          	addi	a6,gp,-2010 # 20000096 <Motor4_Temp>
    1b90:	00085683          	lhu	a3,0(a6)
    1b94:	4601                	li	a2,0
    1b96:	02000593          	li	a1,32
    1b9a:	05400513          	li	a0,84
    1b9e:	a1aff0ef          	jal	ra,db8 <OLED12864_Format3>
    1ba2:	8181c683          	lbu	a3,-2024(gp) # 20000088 <Motor1_Mode>
    1ba6:	4601                	li	a2,0
    1ba8:	03000593          	li	a1,48
    1bac:	4561                	li	a0,24
    1bae:	a0aff0ef          	jal	ra,db8 <OLED12864_Format3>
    1bb2:	81918a13          	addi	s4,gp,-2023 # 20000089 <Motor1_Power>
    1bb6:	000a4683          	lbu	a3,0(s4)
    1bba:	4601                	li	a2,0
    1bbc:	03000593          	li	a1,48
    1bc0:	02800513          	li	a0,40
    1bc4:	a84ff0ef          	jal	ra,e48 <OLED12864_Format6>
    1bc8:	81c1c683          	lbu	a3,-2020(gp) # 2000008c <Motor2_Mode>
    1bcc:	4601                	li	a2,0
    1bce:	03000593          	li	a1,48
    1bd2:	05400513          	li	a0,84
    1bd6:	9e2ff0ef          	jal	ra,db8 <OLED12864_Format3>
    1bda:	81d18993          	addi	s3,gp,-2019 # 2000008d <Motor2_Power>
    1bde:	0009c683          	lbu	a3,0(s3)
    1be2:	4601                	li	a2,0
    1be4:	03000593          	li	a1,48
    1be8:	06800513          	li	a0,104
    1bec:	a5cff0ef          	jal	ra,e48 <OLED12864_Format6>
    1bf0:	8201c683          	lbu	a3,-2016(gp) # 20000090 <Motor3_Mode>
    1bf4:	4601                	li	a2,0
    1bf6:	03800593          	li	a1,56
    1bfa:	4561                	li	a0,24
    1bfc:	9bcff0ef          	jal	ra,db8 <OLED12864_Format3>
    1c00:	82118913          	addi	s2,gp,-2015 # 20000091 <Motor3_Power>
    1c04:	00094683          	lbu	a3,0(s2)
    1c08:	4601                	li	a2,0
    1c0a:	03800593          	li	a1,56
    1c0e:	02800513          	li	a0,40
    1c12:	a36ff0ef          	jal	ra,e48 <OLED12864_Format6>
    1c16:	8241c683          	lbu	a3,-2012(gp) # 20000094 <Motor4_Mode>
    1c1a:	4601                	li	a2,0
    1c1c:	03800593          	li	a1,56
    1c20:	05400513          	li	a0,84
    1c24:	994ff0ef          	jal	ra,db8 <OLED12864_Format3>
    1c28:	82518493          	addi	s1,gp,-2011 # 20000095 <Motor4_Power>
    1c2c:	0004c683          	lbu	a3,0(s1)
    1c30:	4601                	li	a2,0
    1c32:	03800593          	li	a1,56
    1c36:	06800513          	li	a0,104
    1c3a:	a0eff0ef          	jal	ra,e48 <OLED12864_Format6>
    1c3e:	4601                	li	a2,0
    1c40:	86a2                	mv	a3,s0
    1c42:	4581                	li	a1,0
    1c44:	05a00513          	li	a0,90
    1c48:	928ff0ef          	jal	ra,d70 <OLED12864_Format1>
    1c4c:	ce6ff0ef          	jal	ra,1132 <MotorTempGet>
    1c50:	06400513          	li	a0,100
    1c54:	79e000ef          	jal	ra,23f2 <Delayxms>
    1c58:	8441d683          	lhu	a3,-1980(gp) # 200000b4 <Get_Motor1_Data>
    1c5c:	82618813          	addi	a6,gp,-2010 # 20000096 <Motor4_Temp>
    1c60:	00dd9023          	sh	a3,0(s11)
    1c64:	8461d683          	lhu	a3,-1978(gp) # 200000b6 <Get_Motor2_Data>
    1c68:	0405                	addi	s0,s0,1
    1c6a:	0ff47413          	andi	s0,s0,255
    1c6e:	00dd1023          	sh	a3,0(s10)
    1c72:	8481d683          	lhu	a3,-1976(gp) # 200000b8 <Get_Motor3_Data>
    1c76:	00dc9023          	sh	a3,0(s9)
    1c7a:	84a1d583          	lhu	a1,-1974(gp) # 200000ba <Get_Motor4_Data>
    1c7e:	00b81023          	sh	a1,0(a6)
    1c82:	c14ff0ef          	jal	ra,1096 <MotorCurrentGet>
    1c86:	06400513          	li	a0,100
    1c8a:	768000ef          	jal	ra,23f2 <Delayxms>
    1c8e:	8441d503          	lhu	a0,-1980(gp) # 200000b4 <Get_Motor1_Data>
    1c92:	29b000ef          	jal	ra,272c <__floatunsisf>
    1c96:	85e2                	mv	a1,s8
    1c98:	7ae000ef          	jal	ra,2446 <__mulsf3>
    1c9c:	23b000ef          	jal	ra,26d6 <__fixunssfsi>
    1ca0:	87e18713          	addi	a4,gp,-1922 # 200000ee <Motor1_Current>
    1ca4:	00a71023          	sh	a0,0(a4)
    1ca8:	8461d503          	lhu	a0,-1978(gp) # 200000b6 <Get_Motor2_Data>
    1cac:	281000ef          	jal	ra,272c <__floatunsisf>
    1cb0:	000037b7          	lui	a5,0x3
    1cb4:	5447a583          	lw	a1,1348(a5) # 3544 <Font6x8+0x244>
    1cb8:	78e000ef          	jal	ra,2446 <__mulsf3>
    1cbc:	21b000ef          	jal	ra,26d6 <__fixunssfsi>
    1cc0:	88018793          	addi	a5,gp,-1920 # 200000f0 <Motor2_Current>
    1cc4:	00a79023          	sh	a0,0(a5)
    1cc8:	8481d503          	lhu	a0,-1976(gp) # 200000b8 <Get_Motor3_Data>
    1ccc:	261000ef          	jal	ra,272c <__floatunsisf>
    1cd0:	45b2                	lw	a1,12(sp)
    1cd2:	774000ef          	jal	ra,2446 <__mulsf3>
    1cd6:	201000ef          	jal	ra,26d6 <__fixunssfsi>
    1cda:	00ab1023          	sh	a0,0(s6)
    1cde:	84a1d503          	lhu	a0,-1974(gp) # 200000ba <Get_Motor4_Data>
    1ce2:	24b000ef          	jal	ra,272c <__floatunsisf>
    1ce6:	000037b7          	lui	a5,0x3
    1cea:	5487a583          	lw	a1,1352(a5) # 3548 <Font6x8+0x248>
    1cee:	758000ef          	jal	ra,2446 <__mulsf3>
    1cf2:	1e5000ef          	jal	ra,26d6 <__fixunssfsi>
    1cf6:	00aa9023          	sh	a0,0(s5)
    1cfa:	cd4ff0ef          	jal	ra,11ce <MotorPowerGet>
    1cfe:	06400513          	li	a0,100
    1d02:	6f0000ef          	jal	ra,23f2 <Delayxms>
    1d06:	8441d783          	lhu	a5,-1980(gp) # 200000b4 <Get_Motor1_Data>
    1d0a:	00fa0023          	sb	a5,0(s4)
    1d0e:	8461d783          	lhu	a5,-1978(gp) # 200000b6 <Get_Motor2_Data>
    1d12:	00f98023          	sb	a5,0(s3)
    1d16:	8481d783          	lhu	a5,-1976(gp) # 200000b8 <Get_Motor3_Data>
    1d1a:	00f90023          	sb	a5,0(s2)
    1d1e:	84a1d783          	lhu	a5,-1974(gp) # 200000ba <Get_Motor4_Data>
    1d22:	00f48023          	sb	a5,0(s1)
    1d26:	b3c9                	j	1ae8 <main+0x12c>

00001d28 <SystemInit>:
    1d28:	400217b7          	lui	a5,0x40021
    1d2c:	4398                	lw	a4,0(a5)
    1d2e:	f8ff06b7          	lui	a3,0xf8ff0
    1d32:	1141                	addi	sp,sp,-16
    1d34:	00176713          	ori	a4,a4,1
    1d38:	c398                	sw	a4,0(a5)
    1d3a:	43d8                	lw	a4,4(a5)
    1d3c:	00020637          	lui	a2,0x20
    1d40:	8f75                	and	a4,a4,a3
    1d42:	c3d8                	sw	a4,4(a5)
    1d44:	4398                	lw	a4,0(a5)
    1d46:	fef706b7          	lui	a3,0xfef70
    1d4a:	16fd                	addi	a3,a3,-1
    1d4c:	8f75                	and	a4,a4,a3
    1d4e:	c398                	sw	a4,0(a5)
    1d50:	4398                	lw	a4,0(a5)
    1d52:	fffc06b7          	lui	a3,0xfffc0
    1d56:	16fd                	addi	a3,a3,-1
    1d58:	8f75                	and	a4,a4,a3
    1d5a:	c398                	sw	a4,0(a5)
    1d5c:	43d8                	lw	a4,4(a5)
    1d5e:	ff8106b7          	lui	a3,0xff810
    1d62:	16fd                	addi	a3,a3,-1
    1d64:	8f75                	and	a4,a4,a3
    1d66:	c3d8                	sw	a4,4(a5)
    1d68:	4398                	lw	a4,0(a5)
    1d6a:	ec0006b7          	lui	a3,0xec000
    1d6e:	16fd                	addi	a3,a3,-1
    1d70:	8f75                	and	a4,a4,a3
    1d72:	c398                	sw	a4,0(a5)
    1d74:	00ff0737          	lui	a4,0xff0
    1d78:	c798                	sw	a4,8(a5)
    1d7a:	0207a623          	sw	zero,44(a5) # 4002102c <_eusrstack+0x2001902c>
    1d7e:	c402                	sw	zero,8(sp)
    1d80:	c602                	sw	zero,12(sp)
    1d82:	4398                	lw	a4,0(a5)
    1d84:	66c1                	lui	a3,0x10
    1d86:	8f55                	or	a4,a4,a3
    1d88:	c398                	sw	a4,0(a5)
    1d8a:	400216b7          	lui	a3,0x40021
    1d8e:	6711                	lui	a4,0x4
    1d90:	429c                	lw	a5,0(a3)
    1d92:	8ff1                	and	a5,a5,a2
    1d94:	c63e                	sw	a5,12(sp)
    1d96:	47a2                	lw	a5,8(sp)
    1d98:	0785                	addi	a5,a5,1
    1d9a:	c43e                	sw	a5,8(sp)
    1d9c:	47b2                	lw	a5,12(sp)
    1d9e:	e781                	bnez	a5,1da6 <SystemInit+0x7e>
    1da0:	47a2                	lw	a5,8(sp)
    1da2:	fee797e3          	bne	a5,a4,1d90 <SystemInit+0x68>
    1da6:	400217b7          	lui	a5,0x40021
    1daa:	439c                	lw	a5,0(a5)
    1dac:	00e79713          	slli	a4,a5,0xe
    1db0:	04075063          	bgez	a4,1df0 <SystemInit+0xc8>
    1db4:	4785                	li	a5,1
    1db6:	c63e                	sw	a5,12(sp)
    1db8:	4732                	lw	a4,12(sp)
    1dba:	4785                	li	a5,1
    1dbc:	02f71863          	bne	a4,a5,1dec <SystemInit+0xc4>
    1dc0:	400217b7          	lui	a5,0x40021
    1dc4:	43d8                	lw	a4,4(a5)
    1dc6:	400216b7          	lui	a3,0x40021
    1dca:	c3d8                	sw	a4,4(a5)
    1dcc:	43d8                	lw	a4,4(a5)
    1dce:	c3d8                	sw	a4,4(a5)
    1dd0:	43d8                	lw	a4,4(a5)
    1dd2:	c3d8                	sw	a4,4(a5)
    1dd4:	43d8                	lw	a4,4(a5)
    1dd6:	9b71                	andi	a4,a4,-4
    1dd8:	c3d8                	sw	a4,4(a5)
    1dda:	43d8                	lw	a4,4(a5)
    1ddc:	00176713          	ori	a4,a4,1
    1de0:	c3d8                	sw	a4,4(a5)
    1de2:	4711                	li	a4,4
    1de4:	42dc                	lw	a5,4(a3)
    1de6:	8bb1                	andi	a5,a5,12
    1de8:	fee79ee3          	bne	a5,a4,1de4 <SystemInit+0xbc>
    1dec:	0141                	addi	sp,sp,16
    1dee:	8082                	ret
    1df0:	c602                	sw	zero,12(sp)
    1df2:	b7d9                	j	1db8 <SystemInit+0x90>
    1df4:	a001                	j	1df4 <SystemInit+0xcc>
    1df6:	a001                	j	1df6 <SystemInit+0xce>

00001df8 <Ecall_M_Mode_Handler>:
    1df8:	a001                	j	1df8 <Ecall_M_Mode_Handler>

00001dfa <Ecall_U_Mode_Handler>:
    1dfa:	a001                	j	1dfa <Ecall_U_Mode_Handler>

00001dfc <Break_Point_Handler>:
    1dfc:	a001                	j	1dfc <Break_Point_Handler>

00001dfe <SysTick_Handler>:
    1dfe:	a001                	j	1dfe <SysTick_Handler>

00001e00 <SW_Handler>:
    1e00:	a001                	j	1e00 <SW_Handler>

00001e02 <WWDG_IRQHandler>:
    1e02:	a001                	j	1e02 <WWDG_IRQHandler>

00001e04 <PVD_IRQHandler>:
    1e04:	a001                	j	1e04 <PVD_IRQHandler>

00001e06 <TAMPER_IRQHandler>:
    1e06:	a001                	j	1e06 <TAMPER_IRQHandler>

00001e08 <RTC_IRQHandler>:
    1e08:	a001                	j	1e08 <RTC_IRQHandler>

00001e0a <FLASH_IRQHandler>:
    1e0a:	a001                	j	1e0a <FLASH_IRQHandler>

00001e0c <RCC_IRQHandler>:
    1e0c:	a001                	j	1e0c <RCC_IRQHandler>

00001e0e <EXTI0_IRQHandler>:
    1e0e:	a001                	j	1e0e <EXTI0_IRQHandler>

00001e10 <EXTI1_IRQHandler>:
    1e10:	a001                	j	1e10 <EXTI1_IRQHandler>

00001e12 <EXTI2_IRQHandler>:
    1e12:	a001                	j	1e12 <EXTI2_IRQHandler>

00001e14 <EXTI3_IRQHandler>:
    1e14:	a001                	j	1e14 <EXTI3_IRQHandler>

00001e16 <EXTI4_IRQHandler>:
    1e16:	a001                	j	1e16 <EXTI4_IRQHandler>

00001e18 <DMA1_Channel1_IRQHandler>:
    1e18:	a001                	j	1e18 <DMA1_Channel1_IRQHandler>

00001e1a <DMA1_Channel2_IRQHandler>:
    1e1a:	a001                	j	1e1a <DMA1_Channel2_IRQHandler>

00001e1c <DMA1_Channel3_IRQHandler>:
    1e1c:	a001                	j	1e1c <DMA1_Channel3_IRQHandler>

00001e1e <DMA1_Channel4_IRQHandler>:
    1e1e:	a001                	j	1e1e <DMA1_Channel4_IRQHandler>

00001e20 <DMA1_Channel5_IRQHandler>:
    1e20:	a001                	j	1e20 <DMA1_Channel5_IRQHandler>

00001e22 <DMA1_Channel6_IRQHandler>:
    1e22:	a001                	j	1e22 <DMA1_Channel6_IRQHandler>

00001e24 <DMA1_Channel7_IRQHandler>:
    1e24:	a001                	j	1e24 <DMA1_Channel7_IRQHandler>

00001e26 <ADC1_2_IRQHandler>:
    1e26:	a001                	j	1e26 <ADC1_2_IRQHandler>

00001e28 <USB_HP_CAN1_TX_IRQHandler>:
    1e28:	a001                	j	1e28 <USB_HP_CAN1_TX_IRQHandler>

00001e2a <USB_LP_CAN1_RX0_IRQHandler>:
    1e2a:	a001                	j	1e2a <USB_LP_CAN1_RX0_IRQHandler>

00001e2c <CAN1_RX1_IRQHandler>:
    1e2c:	a001                	j	1e2c <CAN1_RX1_IRQHandler>

00001e2e <CAN1_SCE_IRQHandler>:
    1e2e:	a001                	j	1e2e <CAN1_SCE_IRQHandler>

00001e30 <EXTI9_5_IRQHandler>:
    1e30:	a001                	j	1e30 <EXTI9_5_IRQHandler>

00001e32 <TIM1_BRK_IRQHandler>:
    1e32:	a001                	j	1e32 <TIM1_BRK_IRQHandler>

00001e34 <TIM1_UP_IRQHandler>:
    1e34:	a001                	j	1e34 <TIM1_UP_IRQHandler>

00001e36 <TIM1_TRG_COM_IRQHandler>:
    1e36:	a001                	j	1e36 <TIM1_TRG_COM_IRQHandler>

00001e38 <TIM1_CC_IRQHandler>:
    1e38:	a001                	j	1e38 <TIM1_CC_IRQHandler>

00001e3a <TIM2_IRQHandler>:
    1e3a:	a001                	j	1e3a <TIM2_IRQHandler>

00001e3c <TIM3_IRQHandler>:
    1e3c:	a001                	j	1e3c <TIM3_IRQHandler>

00001e3e <TIM4_IRQHandler>:
    1e3e:	a001                	j	1e3e <TIM4_IRQHandler>

00001e40 <I2C1_EV_IRQHandler>:
    1e40:	a001                	j	1e40 <I2C1_EV_IRQHandler>

00001e42 <I2C1_ER_IRQHandler>:
    1e42:	a001                	j	1e42 <I2C1_ER_IRQHandler>

00001e44 <I2C2_EV_IRQHandler>:
    1e44:	a001                	j	1e44 <I2C2_EV_IRQHandler>

00001e46 <I2C2_ER_IRQHandler>:
    1e46:	a001                	j	1e46 <I2C2_ER_IRQHandler>

00001e48 <SPI1_IRQHandler>:
    1e48:	a001                	j	1e48 <SPI1_IRQHandler>

00001e4a <SPI2_IRQHandler>:
    1e4a:	a001                	j	1e4a <SPI2_IRQHandler>
    1e4c:	a001                	j	1e4c <SPI2_IRQHandler+0x2>
    1e4e:	a001                	j	1e4e <SPI2_IRQHandler+0x4>
    1e50:	a001                	j	1e50 <SPI2_IRQHandler+0x6>

00001e52 <EXTI15_10_IRQHandler>:
    1e52:	a001                	j	1e52 <EXTI15_10_IRQHandler>

00001e54 <RTCAlarm_IRQHandler>:
    1e54:	a001                	j	1e54 <RTCAlarm_IRQHandler>

00001e56 <USBWakeUp_IRQHandler>:
    1e56:	a001                	j	1e56 <USBWakeUp_IRQHandler>

00001e58 <TIM8_BRK_IRQHandler>:
    1e58:	a001                	j	1e58 <TIM8_BRK_IRQHandler>

00001e5a <TIM8_UP_IRQHandler>:
    1e5a:	a001                	j	1e5a <TIM8_UP_IRQHandler>

00001e5c <TIM8_TRG_COM_IRQHandler>:
    1e5c:	a001                	j	1e5c <TIM8_TRG_COM_IRQHandler>

00001e5e <TIM8_CC_IRQHandler>:
    1e5e:	a001                	j	1e5e <TIM8_CC_IRQHandler>

00001e60 <RNG_IRQHandler>:
    1e60:	a001                	j	1e60 <RNG_IRQHandler>

00001e62 <FSMC_IRQHandler>:
    1e62:	a001                	j	1e62 <FSMC_IRQHandler>

00001e64 <SDIO_IRQHandler>:
    1e64:	a001                	j	1e64 <SDIO_IRQHandler>

00001e66 <TIM5_IRQHandler>:
    1e66:	a001                	j	1e66 <TIM5_IRQHandler>

00001e68 <SPI3_IRQHandler>:
    1e68:	a001                	j	1e68 <SPI3_IRQHandler>
    1e6a:	a001                	j	1e6a <SPI3_IRQHandler+0x2>
    1e6c:	a001                	j	1e6c <SPI3_IRQHandler+0x4>

00001e6e <TIM6_IRQHandler>:
    1e6e:	a001                	j	1e6e <TIM6_IRQHandler>

00001e70 <TIM7_IRQHandler>:
    1e70:	a001                	j	1e70 <TIM7_IRQHandler>

00001e72 <DMA2_Channel1_IRQHandler>:
    1e72:	a001                	j	1e72 <DMA2_Channel1_IRQHandler>

00001e74 <DMA2_Channel2_IRQHandler>:
    1e74:	a001                	j	1e74 <DMA2_Channel2_IRQHandler>

00001e76 <DMA2_Channel3_IRQHandler>:
    1e76:	a001                	j	1e76 <DMA2_Channel3_IRQHandler>

00001e78 <DMA2_Channel4_IRQHandler>:
    1e78:	a001                	j	1e78 <DMA2_Channel4_IRQHandler>

00001e7a <DMA2_Channel5_IRQHandler>:
    1e7a:	a001                	j	1e7a <DMA2_Channel5_IRQHandler>

00001e7c <ETH_IRQHandler>:
    1e7c:	a001                	j	1e7c <ETH_IRQHandler>

00001e7e <ETH_WKUP_IRQHandler>:
    1e7e:	a001                	j	1e7e <ETH_WKUP_IRQHandler>

00001e80 <CAN2_TX_IRQHandler>:
    1e80:	a001                	j	1e80 <CAN2_TX_IRQHandler>

00001e82 <CAN2_RX0_IRQHandler>:
    1e82:	a001                	j	1e82 <CAN2_RX0_IRQHandler>

00001e84 <CAN2_RX1_IRQHandler>:
    1e84:	a001                	j	1e84 <CAN2_RX1_IRQHandler>

00001e86 <CAN2_SCE_IRQHandler>:
    1e86:	a001                	j	1e86 <CAN2_SCE_IRQHandler>

00001e88 <OTG_FS_IRQHandler>:
    1e88:	a001                	j	1e88 <OTG_FS_IRQHandler>

00001e8a <USBHSWakeup_IRQHandler>:
    1e8a:	a001                	j	1e8a <USBHSWakeup_IRQHandler>

00001e8c <USBHS_IRQHandler>:
    1e8c:	a001                	j	1e8c <USBHS_IRQHandler>

00001e8e <DVP_IRQHandler>:
    1e8e:	a001                	j	1e8e <DVP_IRQHandler>
    1e90:	a001                	j	1e90 <DVP_IRQHandler+0x2>
    1e92:	a001                	j	1e92 <DVP_IRQHandler+0x4>
    1e94:	a001                	j	1e94 <DVP_IRQHandler+0x6>

00001e96 <TIM9_BRK_IRQHandler>:
    1e96:	a001                	j	1e96 <TIM9_BRK_IRQHandler>

00001e98 <TIM9_UP_IRQHandler>:
    1e98:	a001                	j	1e98 <TIM9_UP_IRQHandler>

00001e9a <TIM9_TRG_COM_IRQHandler>:
    1e9a:	a001                	j	1e9a <TIM9_TRG_COM_IRQHandler>

00001e9c <TIM9_CC_IRQHandler>:
    1e9c:	a001                	j	1e9c <TIM9_CC_IRQHandler>

00001e9e <TIM10_BRK_IRQHandler>:
    1e9e:	a001                	j	1e9e <TIM10_BRK_IRQHandler>

00001ea0 <TIM10_UP_IRQHandler>:
    1ea0:	a001                	j	1ea0 <TIM10_UP_IRQHandler>

00001ea2 <TIM10_TRG_COM_IRQHandler>:
    1ea2:	a001                	j	1ea2 <TIM10_TRG_COM_IRQHandler>

00001ea4 <TIM10_CC_IRQHandler>:
    1ea4:	a001                	j	1ea4 <TIM10_CC_IRQHandler>

00001ea6 <DMA2_Channel6_IRQHandler>:
    1ea6:	a001                	j	1ea6 <DMA2_Channel6_IRQHandler>

00001ea8 <DMA2_Channel7_IRQHandler>:
    1ea8:	a001                	j	1ea8 <DMA2_Channel7_IRQHandler>

00001eaa <DMA2_Channel8_IRQHandler>:
    1eaa:	a001                	j	1eaa <DMA2_Channel8_IRQHandler>

00001eac <DMA2_Channel9_IRQHandler>:
    1eac:	a001                	j	1eac <DMA2_Channel9_IRQHandler>

00001eae <DMA2_Channel10_IRQHandler>:
    1eae:	a001                	j	1eae <DMA2_Channel10_IRQHandler>

00001eb0 <DMA2_Channel11_IRQHandler>:
    1eb0:	a001                	j	1eb0 <DMA2_Channel11_IRQHandler>

00001eb2 <handle_reset>:
    1eb2:	1ffff197          	auipc	gp,0x1ffff
    1eb6:	9be18193          	addi	gp,gp,-1602 # 20000870 <__global_pointer$>
    1eba:	20006117          	auipc	sp,0x20006
    1ebe:	14610113          	addi	sp,sp,326 # 20008000 <_eusrstack>
    1ec2:	00002517          	auipc	a0,0x2
    1ec6:	88250513          	addi	a0,a0,-1918 # 3744 <_data_lma>
    1eca:	1fffe597          	auipc	a1,0x1fffe
    1ece:	13658593          	addi	a1,a1,310 # 20000000 <_data_vma>
    1ed2:	84018613          	addi	a2,gp,-1984 # 200000b0 <_edata>
    1ed6:	00c5fa63          	bgeu	a1,a2,1eea <handle_reset+0x38>
    1eda:	00052283          	lw	t0,0(a0)
    1ede:	0055a023          	sw	t0,0(a1)
    1ee2:	0511                	addi	a0,a0,4
    1ee4:	0591                	addi	a1,a1,4
    1ee6:	fec5eae3          	bltu	a1,a2,1eda <handle_reset+0x28>
    1eea:	84018513          	addi	a0,gp,-1984 # 200000b0 <_edata>
    1eee:	ca418593          	addi	a1,gp,-860 # 20000514 <_ebss>
    1ef2:	00b57763          	bgeu	a0,a1,1f00 <handle_reset+0x4e>
    1ef6:	00052023          	sw	zero,0(a0)
    1efa:	0511                	addi	a0,a0,4
    1efc:	feb56de3          	bltu	a0,a1,1ef6 <handle_reset+0x44>
    1f00:	42fd                	li	t0,31
    1f02:	bc029073          	csrw	0xbc0,t0
    1f06:	42ed                	li	t0,27
    1f08:	80429073          	csrw	0x804,t0
    1f0c:	000062b7          	lui	t0,0x6
    1f10:	08828293          	addi	t0,t0,136 # 6088 <_data_lma+0x2944>
    1f14:	3002a073          	csrs	mstatus,t0
    1f18:	ffffe297          	auipc	t0,0xffffe
    1f1c:	12028293          	addi	t0,t0,288 # 38 <_einit>
    1f20:	0032e293          	ori	t0,t0,3
    1f24:	30529073          	csrw	mtvec,t0
    1f28:	e01ff0ef          	jal	ra,1d28 <SystemInit>
    1f2c:	00000297          	auipc	t0,0x0
    1f30:	a9028293          	addi	t0,t0,-1392 # 19bc <main>
    1f34:	34129073          	csrw	mepc,t0
    1f38:	30200073          	mret

00001f3c <GPIO_Init>:
    1f3c:	459c                	lw	a5,8(a1)
    1f3e:	0107f713          	andi	a4,a5,16
    1f42:	00f7f813          	andi	a6,a5,15
    1f46:	c701                	beqz	a4,1f4e <GPIO_Init+0x12>
    1f48:	41d8                	lw	a4,4(a1)
    1f4a:	00e86833          	or	a6,a6,a4
    1f4e:	0005d583          	lhu	a1,0(a1)
    1f52:	0ff5f713          	andi	a4,a1,255
    1f56:	c339                	beqz	a4,1f9c <GPIO_Init+0x60>
    1f58:	4118                	lw	a4,0(a0)
    1f5a:	4681                	li	a3,0
    1f5c:	4e85                	li	t4,1
    1f5e:	4f3d                	li	t5,15
    1f60:	02800f93          	li	t6,40
    1f64:	04800293          	li	t0,72
    1f68:	4e21                	li	t3,8
    1f6a:	00de9633          	sll	a2,t4,a3
    1f6e:	00c5f8b3          	and	a7,a1,a2
    1f72:	03161163          	bne	a2,a7,1f94 <GPIO_Init+0x58>
    1f76:	00269893          	slli	a7,a3,0x2
    1f7a:	011f1333          	sll	t1,t5,a7
    1f7e:	fff34313          	not	t1,t1
    1f82:	00e37733          	and	a4,t1,a4
    1f86:	011818b3          	sll	a7,a6,a7
    1f8a:	00e8e733          	or	a4,a7,a4
    1f8e:	05f79f63          	bne	a5,t6,1fec <GPIO_Init+0xb0>
    1f92:	c950                	sw	a2,20(a0)
    1f94:	0685                	addi	a3,a3,1
    1f96:	fdc69ae3          	bne	a3,t3,1f6a <GPIO_Init+0x2e>
    1f9a:	c118                	sw	a4,0(a0)
    1f9c:	0ff00713          	li	a4,255
    1fa0:	04b77563          	bgeu	a4,a1,1fea <GPIO_Init+0xae>
    1fa4:	4154                	lw	a3,4(a0)
    1fa6:	4621                	li	a2,8
    1fa8:	4e85                	li	t4,1
    1faa:	4f3d                	li	t5,15
    1fac:	02800f93          	li	t6,40
    1fb0:	04800293          	li	t0,72
    1fb4:	4e41                	li	t3,16
    1fb6:	00ce98b3          	sll	a7,t4,a2
    1fba:	0115f733          	and	a4,a1,a7
    1fbe:	02e89263          	bne	a7,a4,1fe2 <GPIO_Init+0xa6>
    1fc2:	00261713          	slli	a4,a2,0x2
    1fc6:	1701                	addi	a4,a4,-32
    1fc8:	00ef1333          	sll	t1,t5,a4
    1fcc:	fff34313          	not	t1,t1
    1fd0:	00d376b3          	and	a3,t1,a3
    1fd4:	00e81733          	sll	a4,a6,a4
    1fd8:	8ed9                	or	a3,a3,a4
    1fda:	01f79d63          	bne	a5,t6,1ff4 <GPIO_Init+0xb8>
    1fde:	01152a23          	sw	a7,20(a0)
    1fe2:	0605                	addi	a2,a2,1
    1fe4:	fdc619e3          	bne	a2,t3,1fb6 <GPIO_Init+0x7a>
    1fe8:	c154                	sw	a3,4(a0)
    1fea:	8082                	ret
    1fec:	fa5794e3          	bne	a5,t0,1f94 <GPIO_Init+0x58>
    1ff0:	c910                	sw	a2,16(a0)
    1ff2:	b74d                	j	1f94 <GPIO_Init+0x58>
    1ff4:	fe5797e3          	bne	a5,t0,1fe2 <GPIO_Init+0xa6>
    1ff8:	01152823          	sw	a7,16(a0)
    1ffc:	b7dd                	j	1fe2 <GPIO_Init+0xa6>

00001ffe <GPIO_ReadOutputDataBit>:
    1ffe:	4548                	lw	a0,12(a0)
    2000:	8d6d                	and	a0,a0,a1
    2002:	00a03533          	snez	a0,a0
    2006:	8082                	ret

00002008 <GPIO_SetBits>:
    2008:	c90c                	sw	a1,16(a0)
    200a:	8082                	ret

0000200c <GPIO_ResetBits>:
    200c:	c94c                	sw	a1,20(a0)
    200e:	8082                	ret

00002010 <NVIC_PriorityGroupConfig>:
    2010:	88a1a423          	sw	a0,-1912(gp) # 200000f8 <NVIC_Priority_Group>
    2014:	8082                	ret

00002016 <NVIC_Init>:
    2016:	88818793          	addi	a5,gp,-1912 # 200000f8 <NVIC_Priority_Group>
    201a:	4394                	lw	a3,0(a5)
    201c:	00054703          	lbu	a4,0(a0)
    2020:	e689                	bnez	a3,202a <NVIC_Init+0x14>
    2022:	00254783          	lbu	a5,2(a0)
    2026:	0792                	slli	a5,a5,0x4
    2028:	a831                	j	2044 <NVIC_Init+0x2e>
    202a:	4394                	lw	a3,0(a5)
    202c:	4605                	li	a2,1
    202e:	04c69163          	bne	a3,a2,2070 <NVIC_Init+0x5a>
    2032:	00254783          	lbu	a5,2(a0)
    2036:	00154603          	lbu	a2,1(a0)
    203a:	0792                	slli	a5,a5,0x4
    203c:	00d61463          	bne	a2,a3,2044 <NVIC_Init+0x2e>
    2040:	f807e793          	ori	a5,a5,-128
    2044:	e000e6b7          	lui	a3,0xe000e
    2048:	0ff7f793          	andi	a5,a5,255
    204c:	96ba                	add	a3,a3,a4
    204e:	40f68023          	sb	a5,1024(a3) # e000e400 <_eusrstack+0xc0006400>
    2052:	4685                	li	a3,1
    2054:	00575793          	srli	a5,a4,0x5
    2058:	00e69733          	sll	a4,a3,a4
    205c:	4154                	lw	a3,4(a0)
    205e:	c6ad                	beqz	a3,20c8 <NVIC_Init+0xb2>
    2060:	04078793          	addi	a5,a5,64 # 40021040 <_eusrstack+0x20019040>
    2064:	078a                	slli	a5,a5,0x2
    2066:	e000e6b7          	lui	a3,0xe000e
    206a:	97b6                	add	a5,a5,a3
    206c:	c398                	sw	a4,0(a5)
    206e:	8082                	ret
    2070:	438c                	lw	a1,0(a5)
    2072:	4689                	li	a3,2
    2074:	02d59363          	bne	a1,a3,209a <NVIC_Init+0x84>
    2078:	00154683          	lbu	a3,1(a0)
    207c:	00254783          	lbu	a5,2(a0)
    2080:	00d66563          	bltu	a2,a3,208a <NVIC_Init+0x74>
    2084:	068a                	slli	a3,a3,0x2
    2086:	97b6                	add	a5,a5,a3
    2088:	bf79                	j	2026 <NVIC_Init+0x10>
    208a:	03e68693          	addi	a3,a3,62 # e000e03e <_eusrstack+0xc000603e>
    208e:	068a                	slli	a3,a3,0x2
    2090:	97b6                	add	a5,a5,a3
    2092:	0ff7f793          	andi	a5,a5,255
    2096:	0792                	slli	a5,a5,0x4
    2098:	b765                	j	2040 <NVIC_Init+0x2a>
    209a:	4390                	lw	a2,0(a5)
    209c:	468d                	li	a3,3
    209e:	00d61e63          	bne	a2,a3,20ba <NVIC_Init+0xa4>
    20a2:	00154683          	lbu	a3,1(a0)
    20a6:	00254783          	lbu	a5,2(a0)
    20aa:	00d66463          	bltu	a2,a3,20b2 <NVIC_Init+0x9c>
    20ae:	0686                	slli	a3,a3,0x1
    20b0:	bfd9                	j	2086 <NVIC_Init+0x70>
    20b2:	07c68693          	addi	a3,a3,124
    20b6:	0686                	slli	a3,a3,0x1
    20b8:	bfe1                	j	2090 <NVIC_Init+0x7a>
    20ba:	4394                	lw	a3,0(a5)
    20bc:	4791                	li	a5,4
    20be:	f8f69ae3          	bne	a3,a5,2052 <NVIC_Init+0x3c>
    20c2:	00154783          	lbu	a5,1(a0)
    20c6:	b785                	j	2026 <NVIC_Init+0x10>
    20c8:	06078793          	addi	a5,a5,96
    20cc:	bf61                	j	2064 <NVIC_Init+0x4e>

000020ce <RCC_GetClocksFreq>:
    20ce:	40021737          	lui	a4,0x40021
    20d2:	435c                	lw	a5,4(a4)
    20d4:	4691                	li	a3,4
    20d6:	8bb1                	andi	a5,a5,12
    20d8:	00d78563          	beq	a5,a3,20e2 <RCC_GetClocksFreq+0x14>
    20dc:	46a1                	li	a3,8
    20de:	06d78663          	beq	a5,a3,214a <RCC_GetClocksFreq+0x7c>
    20e2:	007a17b7          	lui	a5,0x7a1
    20e6:	20078793          	addi	a5,a5,512 # 7a1200 <_data_lma+0x79dabc>
    20ea:	c11c                	sw	a5,0(a0)
    20ec:	40021637          	lui	a2,0x40021
    20f0:	425c                	lw	a5,4(a2)
    20f2:	20000737          	lui	a4,0x20000
    20f6:	00070713          	mv	a4,a4
    20fa:	8391                	srli	a5,a5,0x4
    20fc:	8bbd                	andi	a5,a5,15
    20fe:	97ba                	add	a5,a5,a4
    2100:	0007c683          	lbu	a3,0(a5)
    2104:	411c                	lw	a5,0(a0)
    2106:	00d7d7b3          	srl	a5,a5,a3
    210a:	c15c                	sw	a5,4(a0)
    210c:	4254                	lw	a3,4(a2)
    210e:	82a1                	srli	a3,a3,0x8
    2110:	8a9d                	andi	a3,a3,7
    2112:	96ba                	add	a3,a3,a4
    2114:	0006c683          	lbu	a3,0(a3)
    2118:	00d7d6b3          	srl	a3,a5,a3
    211c:	c514                	sw	a3,8(a0)
    211e:	4254                	lw	a3,4(a2)
    2120:	82ad                	srli	a3,a3,0xb
    2122:	8a9d                	andi	a3,a3,7
    2124:	9736                	add	a4,a4,a3
    2126:	00074703          	lbu	a4,0(a4) # 20000000 <_data_vma>
    212a:	00e7d7b3          	srl	a5,a5,a4
    212e:	c55c                	sw	a5,12(a0)
    2130:	4258                	lw	a4,4(a2)
    2132:	8339                	srli	a4,a4,0xe
    2134:	00377693          	andi	a3,a4,3
    2138:	83418713          	addi	a4,gp,-1996 # 200000a4 <ADCPrescTable>
    213c:	9736                	add	a4,a4,a3
    213e:	00074703          	lbu	a4,0(a4)
    2142:	02e7d7b3          	divu	a5,a5,a4
    2146:	c91c                	sw	a5,16(a0)
    2148:	8082                	ret
    214a:	435c                	lw	a5,4(a4)
    214c:	4354                	lw	a3,4(a4)
    214e:	6741                	lui	a4,0x10
    2150:	83c9                	srli	a5,a5,0x12
    2152:	8ef9                	and	a3,a3,a4
    2154:	1ffff737          	lui	a4,0x1ffff
    2158:	70c72703          	lw	a4,1804(a4) # 1ffff70c <_data_lma+0x1fffbfc8>
    215c:	8bbd                	andi	a5,a5,15
    215e:	0789                	addi	a5,a5,2
    2160:	01171613          	slli	a2,a4,0x11
    2164:	00064863          	bltz	a2,2174 <RCC_GetClocksFreq+0xa6>
    2168:	4645                	li	a2,17
    216a:	4701                	li	a4,0
    216c:	02c79263          	bne	a5,a2,2190 <RCC_GetClocksFreq+0xc2>
    2170:	47c9                	li	a5,18
    2172:	a839                	j	2190 <RCC_GetClocksFreq+0xc2>
    2174:	4709                	li	a4,2
    2176:	02e78963          	beq	a5,a4,21a8 <RCC_GetClocksFreq+0xda>
    217a:	473d                	li	a4,15
    217c:	02e78863          	beq	a5,a4,21ac <RCC_GetClocksFreq+0xde>
    2180:	4741                	li	a4,16
    2182:	02e78863          	beq	a5,a4,21b2 <RCC_GetClocksFreq+0xe4>
    2186:	4645                	li	a2,17
    2188:	4701                	li	a4,0
    218a:	00c79363          	bne	a5,a2,2190 <RCC_GetClocksFreq+0xc2>
    218e:	47c1                	li	a5,16
    2190:	e685                	bnez	a3,21b8 <RCC_GetClocksFreq+0xea>
    2192:	400246b7          	lui	a3,0x40024
    2196:	8006a683          	lw	a3,-2048(a3) # 40023800 <_eusrstack+0x2001b800>
    219a:	8ac1                	andi	a3,a3,16
    219c:	c68d                	beqz	a3,21c6 <RCC_GetClocksFreq+0xf8>
    219e:	007a16b7          	lui	a3,0x7a1
    21a2:	20068693          	addi	a3,a3,512 # 7a1200 <_data_lma+0x79dabc>
    21a6:	a025                	j	21ce <RCC_GetClocksFreq+0x100>
    21a8:	4701                	li	a4,0
    21aa:	b7d9                	j	2170 <RCC_GetClocksFreq+0xa2>
    21ac:	4705                	li	a4,1
    21ae:	47b5                	li	a5,13
    21b0:	b7c5                	j	2190 <RCC_GetClocksFreq+0xc2>
    21b2:	4701                	li	a4,0
    21b4:	47bd                	li	a5,15
    21b6:	bfe9                	j	2190 <RCC_GetClocksFreq+0xc2>
    21b8:	400216b7          	lui	a3,0x40021
    21bc:	42d4                	lw	a3,4(a3)
    21be:	00e69613          	slli	a2,a3,0xe
    21c2:	fc065ee3          	bgez	a2,219e <RCC_GetClocksFreq+0xd0>
    21c6:	003d16b7          	lui	a3,0x3d1
    21ca:	90068693          	addi	a3,a3,-1792 # 3d0900 <_data_lma+0x3cd1bc>
    21ce:	02d787b3          	mul	a5,a5,a3
    21d2:	c11c                	sw	a5,0(a0)
    21d4:	df01                	beqz	a4,20ec <RCC_GetClocksFreq+0x1e>
    21d6:	411c                	lw	a5,0(a0)
    21d8:	8385                	srli	a5,a5,0x1
    21da:	bf01                	j	20ea <RCC_GetClocksFreq+0x1c>

000021dc <RCC_APB2PeriphClockCmd>:
    21dc:	c599                	beqz	a1,21ea <RCC_APB2PeriphClockCmd+0xe>
    21de:	40021737          	lui	a4,0x40021
    21e2:	4f1c                	lw	a5,24(a4)
    21e4:	8d5d                	or	a0,a0,a5
    21e6:	cf08                	sw	a0,24(a4)
    21e8:	8082                	ret
    21ea:	400217b7          	lui	a5,0x40021
    21ee:	4f98                	lw	a4,24(a5)
    21f0:	fff54513          	not	a0,a0
    21f4:	8d79                	and	a0,a0,a4
    21f6:	cf88                	sw	a0,24(a5)
    21f8:	8082                	ret

000021fa <RCC_APB1PeriphClockCmd>:
    21fa:	c599                	beqz	a1,2208 <RCC_APB1PeriphClockCmd+0xe>
    21fc:	40021737          	lui	a4,0x40021
    2200:	4f5c                	lw	a5,28(a4)
    2202:	8d5d                	or	a0,a0,a5
    2204:	cf48                	sw	a0,28(a4)
    2206:	8082                	ret
    2208:	400217b7          	lui	a5,0x40021
    220c:	4fd8                	lw	a4,28(a5)
    220e:	fff54513          	not	a0,a0
    2212:	8d79                	and	a0,a0,a4
    2214:	cfc8                	sw	a0,28(a5)
    2216:	8082                	ret

00002218 <USART_Init>:
    2218:	01055683          	lhu	a3,16(a0)
    221c:	77f5                	lui	a5,0xffffd
    221e:	17fd                	addi	a5,a5,-1
    2220:	8ff5                	and	a5,a5,a3
    2222:	0065d683          	lhu	a3,6(a1)
    2226:	7139                	addi	sp,sp,-64
    2228:	dc22                	sw	s0,56(sp)
    222a:	de06                	sw	ra,60(sp)
    222c:	8fd5                	or	a5,a5,a3
    222e:	00c5d703          	lhu	a4,12(a1)
    2232:	00f51823          	sh	a5,16(a0)
    2236:	00c55683          	lhu	a3,12(a0)
    223a:	77fd                	lui	a5,0xfffff
    223c:	9f378793          	addi	a5,a5,-1549 # ffffe9f3 <_eusrstack+0xdfff69f3>
    2240:	8ff5                	and	a5,a5,a3
    2242:	0045d683          	lhu	a3,4(a1)
    2246:	842a                	mv	s0,a0
    2248:	c62e                	sw	a1,12(sp)
    224a:	8fd5                	or	a5,a5,a3
    224c:	0085d683          	lhu	a3,8(a1)
    2250:	8fd5                	or	a5,a5,a3
    2252:	00a5d683          	lhu	a3,10(a1)
    2256:	8fd5                	or	a5,a5,a3
    2258:	00f51623          	sh	a5,12(a0)
    225c:	01455783          	lhu	a5,20(a0)
    2260:	07c2                	slli	a5,a5,0x10
    2262:	83c1                	srli	a5,a5,0x10
    2264:	cff7f793          	andi	a5,a5,-769
    2268:	8fd9                	or	a5,a5,a4
    226a:	00f51a23          	sh	a5,20(a0)
    226e:	0868                	addi	a0,sp,28
    2270:	e5fff0ef          	jal	ra,20ce <RCC_GetClocksFreq>
    2274:	400147b7          	lui	a5,0x40014
    2278:	80078793          	addi	a5,a5,-2048 # 40013800 <_eusrstack+0x2000b800>
    227c:	45b2                	lw	a1,12(sp)
    227e:	04f41e63          	bne	s0,a5,22da <USART_Init+0xc2>
    2282:	57a2                	lw	a5,40(sp)
    2284:	00c45683          	lhu	a3,12(s0)
    2288:	4765                	li	a4,25
    228a:	02e787b3          	mul	a5,a5,a4
    228e:	06c2                	slli	a3,a3,0x10
    2290:	86c1                	srai	a3,a3,0x10
    2292:	4198                	lw	a4,0(a1)
    2294:	0406d563          	bgez	a3,22de <USART_Init+0xc6>
    2298:	0706                	slli	a4,a4,0x1
    229a:	00c45603          	lhu	a2,12(s0)
    229e:	0642                	slli	a2,a2,0x10
    22a0:	02e7d7b3          	divu	a5,a5,a4
    22a4:	06400713          	li	a4,100
    22a8:	8641                	srai	a2,a2,0x10
    22aa:	02e7d6b3          	divu	a3,a5,a4
    22ae:	02e7f7b3          	remu	a5,a5,a4
    22b2:	0692                	slli	a3,a3,0x4
    22b4:	02065763          	bgez	a2,22e2 <USART_Init+0xca>
    22b8:	078e                	slli	a5,a5,0x3
    22ba:	03278793          	addi	a5,a5,50
    22be:	02e7d7b3          	divu	a5,a5,a4
    22c2:	0077f713          	andi	a4,a5,7
    22c6:	00d767b3          	or	a5,a4,a3
    22ca:	07c2                	slli	a5,a5,0x10
    22cc:	83c1                	srli	a5,a5,0x10
    22ce:	00f41423          	sh	a5,8(s0)
    22d2:	50f2                	lw	ra,60(sp)
    22d4:	5462                	lw	s0,56(sp)
    22d6:	6121                	addi	sp,sp,64
    22d8:	8082                	ret
    22da:	5792                	lw	a5,36(sp)
    22dc:	b765                	j	2284 <USART_Init+0x6c>
    22de:	070a                	slli	a4,a4,0x2
    22e0:	bf6d                	j	229a <USART_Init+0x82>
    22e2:	0792                	slli	a5,a5,0x4
    22e4:	03278793          	addi	a5,a5,50
    22e8:	02e7d7b3          	divu	a5,a5,a4
    22ec:	8bbd                	andi	a5,a5,15
    22ee:	8fd5                	or	a5,a5,a3
    22f0:	bfe9                	j	22ca <USART_Init+0xb2>

000022f2 <USART_Cmd>:
    22f2:	c981                	beqz	a1,2302 <USART_Cmd+0x10>
    22f4:	00c55783          	lhu	a5,12(a0)
    22f8:	6709                	lui	a4,0x2
    22fa:	8fd9                	or	a5,a5,a4
    22fc:	00f51623          	sh	a5,12(a0)
    2300:	8082                	ret
    2302:	00c55703          	lhu	a4,12(a0)
    2306:	77f9                	lui	a5,0xffffe
    2308:	17fd                	addi	a5,a5,-1
    230a:	8ff9                	and	a5,a5,a4
    230c:	bfc5                	j	22fc <USART_Cmd+0xa>

0000230e <USART_ITConfig>:
    230e:	0ff5f713          	andi	a4,a1,255
    2312:	4785                	li	a5,1
    2314:	8315                	srli	a4,a4,0x5
    2316:	00b795b3          	sll	a1,a5,a1
    231a:	00f71963          	bne	a4,a5,232c <USART_ITConfig+0x1e>
    231e:	00c50793          	addi	a5,a0,12
    2322:	4398                	lw	a4,0(a5)
    2324:	ce01                	beqz	a2,233c <USART_ITConfig+0x2e>
    2326:	8dd9                	or	a1,a1,a4
    2328:	c38c                	sw	a1,0(a5)
    232a:	8082                	ret
    232c:	4689                	li	a3,2
    232e:	01450793          	addi	a5,a0,20
    2332:	fed718e3          	bne	a4,a3,2322 <USART_ITConfig+0x14>
    2336:	01050793          	addi	a5,a0,16
    233a:	b7e5                	j	2322 <USART_ITConfig+0x14>
    233c:	fff5c593          	not	a1,a1
    2340:	8df9                	and	a1,a1,a4
    2342:	b7dd                	j	2328 <USART_ITConfig+0x1a>

00002344 <USART_SendData>:
    2344:	1ff5f593          	andi	a1,a1,511
    2348:	00b51223          	sh	a1,4(a0)
    234c:	8082                	ret

0000234e <USART_ReceiveData>:
    234e:	00455503          	lhu	a0,4(a0)
    2352:	1ff57513          	andi	a0,a0,511
    2356:	8082                	ret

00002358 <USART_GetFlagStatus>:
    2358:	00055503          	lhu	a0,0(a0)
    235c:	8d6d                	and	a0,a0,a1
    235e:	00a03533          	snez	a0,a0
    2362:	8082                	ret

00002364 <USART_ClearFlag>:
    2364:	fff5c593          	not	a1,a1
    2368:	05c2                	slli	a1,a1,0x10
    236a:	81c1                	srli	a1,a1,0x10
    236c:	00b51023          	sh	a1,0(a0)
    2370:	8082                	ret

00002372 <USART_GetITStatus>:
    2372:	0ff5f713          	andi	a4,a1,255
    2376:	4685                	li	a3,1
    2378:	8315                	srli	a4,a4,0x5
    237a:	00b697b3          	sll	a5,a3,a1
    237e:	02d71363          	bne	a4,a3,23a4 <USART_GetITStatus+0x32>
    2382:	00c55703          	lhu	a4,12(a0)
    2386:	8ff9                	and	a5,a5,a4
    2388:	00055703          	lhu	a4,0(a0)
    238c:	4501                	li	a0,0
    238e:	0742                	slli	a4,a4,0x10
    2390:	8341                	srli	a4,a4,0x10
    2392:	cb81                	beqz	a5,23a2 <USART_GetITStatus+0x30>
    2394:	4505                	li	a0,1
    2396:	81a1                	srli	a1,a1,0x8
    2398:	00b515b3          	sll	a1,a0,a1
    239c:	8f6d                	and	a4,a4,a1
    239e:	00e03533          	snez	a0,a4
    23a2:	8082                	ret
    23a4:	4689                	li	a3,2
    23a6:	00d71563          	bne	a4,a3,23b0 <USART_GetITStatus+0x3e>
    23aa:	01055703          	lhu	a4,16(a0)
    23ae:	bfe1                	j	2386 <USART_GetITStatus+0x14>
    23b0:	01455703          	lhu	a4,20(a0)
    23b4:	bfc9                	j	2386 <USART_GetITStatus+0x14>

000023b6 <USART_ClearITPendingBit>:
    23b6:	81a1                	srli	a1,a1,0x8
    23b8:	4785                	li	a5,1
    23ba:	00b797b3          	sll	a5,a5,a1
    23be:	fff7c793          	not	a5,a5
    23c2:	07c2                	slli	a5,a5,0x10
    23c4:	83c1                	srli	a5,a5,0x10
    23c6:	00f51023          	sh	a5,0(a0)
    23ca:	8082                	ret

000023cc <Delay_Init>:
    23cc:	8301a783          	lw	a5,-2000(gp) # 200000a0 <SystemCoreClock>
    23d0:	007a1737          	lui	a4,0x7a1
    23d4:	20070713          	addi	a4,a4,512 # 7a1200 <_data_lma+0x79dabc>
    23d8:	02e7d7b3          	divu	a5,a5,a4
    23dc:	0ff7f793          	andi	a5,a5,255
    23e0:	88f18723          	sb	a5,-1906(gp) # 200000fe <p_us>
    23e4:	3e800713          	li	a4,1000
    23e8:	02e787b3          	mul	a5,a5,a4
    23ec:	88f19623          	sh	a5,-1908(gp) # 200000fc <p_ms>
    23f0:	8082                	ret

000023f2 <Delayxms>:
    23f2:	e000f7b7          	lui	a5,0xe000f
    23f6:	43d8                	lw	a4,4(a5)
    23f8:	4681                	li	a3,0
    23fa:	9b79                	andi	a4,a4,-2
    23fc:	c3d8                	sw	a4,4(a5)
    23fe:	88c1d703          	lhu	a4,-1908(gp) # 200000fc <p_ms>
    2402:	02a70633          	mul	a2,a4,a0
    2406:	cb90                	sw	a2,16(a5)
    2408:	cbd4                	sw	a3,20(a5)
    240a:	4398                	lw	a4,0(a5)
    240c:	03176713          	ori	a4,a4,49
    2410:	c398                	sw	a4,0(a5)
    2412:	43d8                	lw	a4,4(a5)
    2414:	8b05                	andi	a4,a4,1
    2416:	df75                	beqz	a4,2412 <Delayxms+0x20>
    2418:	4398                	lw	a4,0(a5)
    241a:	9b79                	andi	a4,a4,-2
    241c:	c398                	sw	a4,0(a5)
    241e:	8082                	ret

00002420 <_sbrk>:
    2420:	83818713          	addi	a4,gp,-1992 # 200000a8 <curbrk.5228>
    2424:	431c                	lw	a5,0(a4)
    2426:	ca418693          	addi	a3,gp,-860 # 20000514 <_ebss>
    242a:	953e                	add	a0,a0,a5
    242c:	00d56b63          	bltu	a0,a3,2442 <_sbrk+0x22>
    2430:	200086b7          	lui	a3,0x20008
    2434:	80068693          	addi	a3,a3,-2048 # 20007800 <_heap_end>
    2438:	00a6e563          	bltu	a3,a0,2442 <_sbrk+0x22>
    243c:	c308                	sw	a0,0(a4)
    243e:	853e                	mv	a0,a5
    2440:	8082                	ret
    2442:	57fd                	li	a5,-1
    2444:	bfed                	j	243e <_sbrk+0x1e>

00002446 <__mulsf3>:
    2446:	7179                	addi	sp,sp,-48
    2448:	d422                	sw	s0,40(sp)
    244a:	01755413          	srli	s0,a0,0x17
    244e:	ce4e                	sw	s3,28(sp)
    2450:	cc52                	sw	s4,24(sp)
    2452:	00951993          	slli	s3,a0,0x9
    2456:	d606                	sw	ra,44(sp)
    2458:	d226                	sw	s1,36(sp)
    245a:	d04a                	sw	s2,32(sp)
    245c:	ca56                	sw	s5,20(sp)
    245e:	c85a                	sw	s6,16(sp)
    2460:	0ff47413          	andi	s0,s0,255
    2464:	0099d993          	srli	s3,s3,0x9
    2468:	01f55a13          	srli	s4,a0,0x1f
    246c:	c469                	beqz	s0,2536 <__mulsf3+0xf0>
    246e:	0ff00793          	li	a5,255
    2472:	0ef40863          	beq	s0,a5,2562 <__mulsf3+0x11c>
    2476:	00399793          	slli	a5,s3,0x3
    247a:	04000737          	lui	a4,0x4000
    247e:	00e7e9b3          	or	s3,a5,a4
    2482:	f8140413          	addi	s0,s0,-127
    2486:	4481                	li	s1,0
    2488:	4b01                	li	s6,0
    248a:	0175d713          	srli	a4,a1,0x17
    248e:	00959a93          	slli	s5,a1,0x9
    2492:	0ff77713          	andi	a4,a4,255
    2496:	009ada93          	srli	s5,s5,0x9
    249a:	01f5d913          	srli	s2,a1,0x1f
    249e:	cf45                	beqz	a4,2556 <__mulsf3+0x110>
    24a0:	0ff00793          	li	a5,255
    24a4:	02f70c63          	beq	a4,a5,24dc <__mulsf3+0x96>
    24a8:	0a8e                	slli	s5,s5,0x3
    24aa:	f8170713          	addi	a4,a4,-127 # 3ffff81 <_data_lma+0x3ffc83d>
    24ae:	040007b7          	lui	a5,0x4000
    24b2:	00faeab3          	or	s5,s5,a5
    24b6:	943a                	add	s0,s0,a4
    24b8:	4601                	li	a2,0
    24ba:	012a4533          	xor	a0,s4,s2
    24be:	47bd                	li	a5,15
    24c0:	86aa                	mv	a3,a0
    24c2:	00140593          	addi	a1,s0,1
    24c6:	1097e063          	bltu	a5,s1,25c6 <__mulsf3+0x180>
    24ca:	00001717          	auipc	a4,0x1
    24ce:	09e70713          	addi	a4,a4,158 # 3568 <Font6x8+0x268>
    24d2:	048a                	slli	s1,s1,0x2
    24d4:	94ba                	add	s1,s1,a4
    24d6:	409c                	lw	a5,0(s1)
    24d8:	97ba                	add	a5,a5,a4
    24da:	8782                	jr	a5
    24dc:	0ff40413          	addi	s0,s0,255
    24e0:	0c0a9663          	bnez	s5,25ac <__mulsf3+0x166>
    24e4:	0024e493          	ori	s1,s1,2
    24e8:	4609                	li	a2,2
    24ea:	bfc1                	j	24ba <__mulsf3+0x74>
    24ec:	4501                	li	a0,0
    24ee:	0ff00713          	li	a4,255
    24f2:	004007b7          	lui	a5,0x400
    24f6:	50b2                	lw	ra,44(sp)
    24f8:	5422                	lw	s0,40(sp)
    24fa:	07a6                	slli	a5,a5,0x9
    24fc:	075e                	slli	a4,a4,0x17
    24fe:	83a5                	srli	a5,a5,0x9
    2500:	057e                	slli	a0,a0,0x1f
    2502:	8fd9                	or	a5,a5,a4
    2504:	5492                	lw	s1,36(sp)
    2506:	5902                	lw	s2,32(sp)
    2508:	49f2                	lw	s3,28(sp)
    250a:	4a62                	lw	s4,24(sp)
    250c:	4ad2                	lw	s5,20(sp)
    250e:	4b42                	lw	s6,16(sp)
    2510:	8d5d                	or	a0,a0,a5
    2512:	6145                	addi	sp,sp,48
    2514:	8082                	ret
    2516:	86ca                	mv	a3,s2
    2518:	89d6                	mv	s3,s5
    251a:	8b32                	mv	s6,a2
    251c:	4789                	li	a5,2
    251e:	08fb0f63          	beq	s6,a5,25bc <__mulsf3+0x176>
    2522:	478d                	li	a5,3
    2524:	fcfb04e3          	beq	s6,a5,24ec <__mulsf3+0xa6>
    2528:	4785                	li	a5,1
    252a:	8536                	mv	a0,a3
    252c:	1afb1063          	bne	s6,a5,26cc <__mulsf3+0x286>
    2530:	4701                	li	a4,0
    2532:	4781                	li	a5,0
    2534:	b7c9                	j	24f6 <__mulsf3+0xb0>
    2536:	04099d63          	bnez	s3,2590 <__mulsf3+0x14a>
    253a:	0175d713          	srli	a4,a1,0x17
    253e:	00959a93          	slli	s5,a1,0x9
    2542:	0ff77713          	andi	a4,a4,255
    2546:	4491                	li	s1,4
    2548:	4401                	li	s0,0
    254a:	4b05                	li	s6,1
    254c:	009ada93          	srli	s5,s5,0x9
    2550:	01f5d913          	srli	s2,a1,0x1f
    2554:	f731                	bnez	a4,24a0 <__mulsf3+0x5a>
    2556:	000a9d63          	bnez	s5,2570 <__mulsf3+0x12a>
    255a:	0014e493          	ori	s1,s1,1
    255e:	4605                	li	a2,1
    2560:	bfa9                	j	24ba <__mulsf3+0x74>
    2562:	02099263          	bnez	s3,2586 <__mulsf3+0x140>
    2566:	44a1                	li	s1,8
    2568:	0ff00413          	li	s0,255
    256c:	4b09                	li	s6,2
    256e:	bf31                	j	248a <__mulsf3+0x44>
    2570:	8556                	mv	a0,s5
    2572:	2461                	jal	27fa <__clzsi2>
    2574:	ffb50793          	addi	a5,a0,-5
    2578:	8c09                	sub	s0,s0,a0
    257a:	00fa9ab3          	sll	s5,s5,a5
    257e:	f8a40413          	addi	s0,s0,-118
    2582:	4601                	li	a2,0
    2584:	bf1d                	j	24ba <__mulsf3+0x74>
    2586:	44b1                	li	s1,12
    2588:	0ff00413          	li	s0,255
    258c:	4b0d                	li	s6,3
    258e:	bdf5                	j	248a <__mulsf3+0x44>
    2590:	854e                	mv	a0,s3
    2592:	c62e                	sw	a1,12(sp)
    2594:	249d                	jal	27fa <__clzsi2>
    2596:	ffb50793          	addi	a5,a0,-5
    259a:	f8a00413          	li	s0,-118
    259e:	00f999b3          	sll	s3,s3,a5
    25a2:	8c09                	sub	s0,s0,a0
    25a4:	4481                	li	s1,0
    25a6:	4b01                	li	s6,0
    25a8:	45b2                	lw	a1,12(sp)
    25aa:	b5c5                	j	248a <__mulsf3+0x44>
    25ac:	0034e493          	ori	s1,s1,3
    25b0:	460d                	li	a2,3
    25b2:	b721                	j	24ba <__mulsf3+0x74>
    25b4:	4789                	li	a5,2
    25b6:	86d2                	mv	a3,s4
    25b8:	f6fb15e3          	bne	s6,a5,2522 <__mulsf3+0xdc>
    25bc:	8536                	mv	a0,a3
    25be:	0ff00713          	li	a4,255
    25c2:	4781                	li	a5,0
    25c4:	bf0d                	j	24f6 <__mulsf3+0xb0>
    25c6:	6341                	lui	t1,0x10
    25c8:	fff30693          	addi	a3,t1,-1 # ffff <_data_lma+0xc8bb>
    25cc:	0109d613          	srli	a2,s3,0x10
    25d0:	010ad893          	srli	a7,s5,0x10
    25d4:	00d9f7b3          	and	a5,s3,a3
    25d8:	00dafab3          	and	s5,s5,a3
    25dc:	03578833          	mul	a6,a5,s5
    25e0:	02f889b3          	mul	s3,a7,a5
    25e4:	01085713          	srli	a4,a6,0x10
    25e8:	03560ab3          	mul	s5,a2,s5
    25ec:	99d6                	add	s3,s3,s5
    25ee:	974e                	add	a4,a4,s3
    25f0:	03160633          	mul	a2,a2,a7
    25f4:	01577363          	bgeu	a4,s5,25fa <__mulsf3+0x1b4>
    25f8:	961a                	add	a2,a2,t1
    25fa:	67c1                	lui	a5,0x10
    25fc:	17fd                	addi	a5,a5,-1
    25fe:	00f776b3          	and	a3,a4,a5
    2602:	00f87833          	and	a6,a6,a5
    2606:	06c2                	slli	a3,a3,0x10
    2608:	96c2                	add	a3,a3,a6
    260a:	00669993          	slli	s3,a3,0x6
    260e:	01075793          	srli	a5,a4,0x10
    2612:	013039b3          	snez	s3,s3
    2616:	82e9                	srli	a3,a3,0x1a
    2618:	97b2                	add	a5,a5,a2
    261a:	079a                	slli	a5,a5,0x6
    261c:	00d9e6b3          	or	a3,s3,a3
    2620:	00d7e9b3          	or	s3,a5,a3
    2624:	00499793          	slli	a5,s3,0x4
    2628:	0007d963          	bgez	a5,263a <__mulsf3+0x1f4>
    262c:	0019d713          	srli	a4,s3,0x1
    2630:	0019f793          	andi	a5,s3,1
    2634:	00f769b3          	or	s3,a4,a5
    2638:	842e                	mv	s0,a1
    263a:	07f40713          	addi	a4,s0,127
    263e:	04e05063          	blez	a4,267e <__mulsf3+0x238>
    2642:	0079f793          	andi	a5,s3,7
    2646:	c799                	beqz	a5,2654 <__mulsf3+0x20e>
    2648:	00f9f793          	andi	a5,s3,15
    264c:	4691                	li	a3,4
    264e:	00d78363          	beq	a5,a3,2654 <__mulsf3+0x20e>
    2652:	0991                	addi	s3,s3,4
    2654:	00499793          	slli	a5,s3,0x4
    2658:	0007d963          	bgez	a5,266a <__mulsf3+0x224>
    265c:	f80007b7          	lui	a5,0xf8000
    2660:	17fd                	addi	a5,a5,-1
    2662:	00f9f9b3          	and	s3,s3,a5
    2666:	08040713          	addi	a4,s0,128
    266a:	0fe00793          	li	a5,254
    266e:	04e7cb63          	blt	a5,a4,26c4 <__mulsf3+0x27e>
    2672:	00699793          	slli	a5,s3,0x6
    2676:	83a5                	srli	a5,a5,0x9
    2678:	0ff77713          	andi	a4,a4,255
    267c:	bdad                	j	24f6 <__mulsf3+0xb0>
    267e:	4785                	li	a5,1
    2680:	40e786b3          	sub	a3,a5,a4
    2684:	c711                	beqz	a4,2690 <__mulsf3+0x24a>
    2686:	466d                	li	a2,27
    2688:	4701                	li	a4,0
    268a:	4781                	li	a5,0
    268c:	e6d645e3          	blt	a2,a3,24f6 <__mulsf3+0xb0>
    2690:	09e40713          	addi	a4,s0,158
    2694:	00e99733          	sll	a4,s3,a4
    2698:	00e03733          	snez	a4,a4
    269c:	00d9d7b3          	srl	a5,s3,a3
    26a0:	8fd9                	or	a5,a5,a4
    26a2:	0077f713          	andi	a4,a5,7
    26a6:	c719                	beqz	a4,26b4 <__mulsf3+0x26e>
    26a8:	00f7f713          	andi	a4,a5,15
    26ac:	4691                	li	a3,4
    26ae:	00d70363          	beq	a4,a3,26b4 <__mulsf3+0x26e>
    26b2:	0791                	addi	a5,a5,4
    26b4:	00579713          	slli	a4,a5,0x5
    26b8:	00074c63          	bltz	a4,26d0 <__mulsf3+0x28a>
    26bc:	079a                	slli	a5,a5,0x6
    26be:	83a5                	srli	a5,a5,0x9
    26c0:	4701                	li	a4,0
    26c2:	bd15                	j	24f6 <__mulsf3+0xb0>
    26c4:	0ff00713          	li	a4,255
    26c8:	4781                	li	a5,0
    26ca:	b535                	j	24f6 <__mulsf3+0xb0>
    26cc:	842e                	mv	s0,a1
    26ce:	b7b5                	j	263a <__mulsf3+0x1f4>
    26d0:	4705                	li	a4,1
    26d2:	4781                	li	a5,0
    26d4:	b50d                	j	24f6 <__mulsf3+0xb0>

000026d6 <__fixunssfsi>:
    26d6:	01755713          	srli	a4,a0,0x17
    26da:	00800637          	lui	a2,0x800
    26de:	fff60793          	addi	a5,a2,-1 # 7fffff <_data_lma+0x7fc8bb>
    26e2:	0ff77713          	andi	a4,a4,255
    26e6:	07e00593          	li	a1,126
    26ea:	00a7f6b3          	and	a3,a5,a0
    26ee:	01f55793          	srli	a5,a0,0x1f
    26f2:	4501                	li	a0,0
    26f4:	00e5f463          	bgeu	a1,a4,26fc <__fixunssfsi+0x26>
    26f8:	c399                	beqz	a5,26fe <__fixunssfsi+0x28>
    26fa:	8082                	ret
    26fc:	8082                	ret
    26fe:	09e00793          	li	a5,158
    2702:	557d                	li	a0,-1
    2704:	fee7ebe3          	bltu	a5,a4,26fa <__fixunssfsi+0x24>
    2708:	09500593          	li	a1,149
    270c:	00c6e7b3          	or	a5,a3,a2
    2710:	00e5d763          	bge	a1,a4,271e <__fixunssfsi+0x48>
    2714:	f6a70713          	addi	a4,a4,-150
    2718:	00e79533          	sll	a0,a5,a4
    271c:	8082                	ret
    271e:	09600513          	li	a0,150
    2722:	40e50733          	sub	a4,a0,a4
    2726:	00e7d533          	srl	a0,a5,a4
    272a:	8082                	ret

0000272c <__floatunsisf>:
    272c:	1141                	addi	sp,sp,-16
    272e:	c606                	sw	ra,12(sp)
    2730:	c422                	sw	s0,8(sp)
    2732:	cd15                	beqz	a0,276e <__floatunsisf+0x42>
    2734:	842a                	mv	s0,a0
    2736:	20d1                	jal	27fa <__clzsi2>
    2738:	09e00793          	li	a5,158
    273c:	40a78733          	sub	a4,a5,a0
    2740:	09600793          	li	a5,150
    2744:	04e7c063          	blt	a5,a4,2784 <__floatunsisf+0x58>
    2748:	46a1                	li	a3,8
    274a:	0ff77793          	andi	a5,a4,255
    274e:	00a6d563          	bge	a3,a0,2758 <__floatunsisf+0x2c>
    2752:	1561                	addi	a0,a0,-8
    2754:	00a41433          	sll	s0,s0,a0
    2758:	0426                	slli	s0,s0,0x9
    275a:	8025                	srli	s0,s0,0x9
    275c:	0426                	slli	s0,s0,0x9
    275e:	00945513          	srli	a0,s0,0x9
    2762:	40b2                	lw	ra,12(sp)
    2764:	4422                	lw	s0,8(sp)
    2766:	07de                	slli	a5,a5,0x17
    2768:	8d5d                	or	a0,a0,a5
    276a:	0141                	addi	sp,sp,16
    276c:	8082                	ret
    276e:	4401                	li	s0,0
    2770:	0426                	slli	s0,s0,0x9
    2772:	00945513          	srli	a0,s0,0x9
    2776:	40b2                	lw	ra,12(sp)
    2778:	4422                	lw	s0,8(sp)
    277a:	4781                	li	a5,0
    277c:	07de                	slli	a5,a5,0x17
    277e:	8d5d                	or	a0,a0,a5
    2780:	0141                	addi	sp,sp,16
    2782:	8082                	ret
    2784:	09900793          	li	a5,153
    2788:	00e7dd63          	bge	a5,a4,27a2 <__floatunsisf+0x76>
    278c:	01b50793          	addi	a5,a0,27
    2790:	4695                	li	a3,5
    2792:	00f417b3          	sll	a5,s0,a5
    2796:	8e89                	sub	a3,a3,a0
    2798:	00f037b3          	snez	a5,a5
    279c:	00d45433          	srl	s0,s0,a3
    27a0:	8c5d                	or	s0,s0,a5
    27a2:	4795                	li	a5,5
    27a4:	00a7d663          	bge	a5,a0,27b0 <__floatunsisf+0x84>
    27a8:	ffb50793          	addi	a5,a0,-5
    27ac:	00f41433          	sll	s0,s0,a5
    27b0:	fc0006b7          	lui	a3,0xfc000
    27b4:	16fd                	addi	a3,a3,-1
    27b6:	00747793          	andi	a5,s0,7
    27ba:	00d47633          	and	a2,s0,a3
    27be:	c385                	beqz	a5,27de <__floatunsisf+0xb2>
    27c0:	00f47793          	andi	a5,s0,15
    27c4:	4591                	li	a1,4
    27c6:	00b78c63          	beq	a5,a1,27de <__floatunsisf+0xb2>
    27ca:	0611                	addi	a2,a2,4
    27cc:	00561793          	slli	a5,a2,0x5
    27d0:	0007d763          	bgez	a5,27de <__floatunsisf+0xb2>
    27d4:	09f00793          	li	a5,159
    27d8:	8e75                	and	a2,a2,a3
    27da:	40a78733          	sub	a4,a5,a0
    27de:	00661413          	slli	s0,a2,0x6
    27e2:	8025                	srli	s0,s0,0x9
    27e4:	0426                	slli	s0,s0,0x9
    27e6:	00945513          	srli	a0,s0,0x9
    27ea:	40b2                	lw	ra,12(sp)
    27ec:	4422                	lw	s0,8(sp)
    27ee:	0ff77793          	andi	a5,a4,255
    27f2:	07de                	slli	a5,a5,0x17
    27f4:	8d5d                	or	a0,a0,a5
    27f6:	0141                	addi	sp,sp,16
    27f8:	8082                	ret

000027fa <__clzsi2>:
    27fa:	67c1                	lui	a5,0x10
    27fc:	02f57e63          	bgeu	a0,a5,2838 <__clzsi2+0x3e>
    2800:	0ff00793          	li	a5,255
    2804:	02000713          	li	a4,32
    2808:	00a7ec63          	bltu	a5,a0,2820 <__clzsi2+0x26>
    280c:	00001797          	auipc	a5,0x1
    2810:	d9c78793          	addi	a5,a5,-612 # 35a8 <__clz_tab>
    2814:	97aa                	add	a5,a5,a0
    2816:	0007c503          	lbu	a0,0(a5)
    281a:	40a70533          	sub	a0,a4,a0
    281e:	8082                	ret
    2820:	8121                	srli	a0,a0,0x8
    2822:	00001797          	auipc	a5,0x1
    2826:	d8678793          	addi	a5,a5,-634 # 35a8 <__clz_tab>
    282a:	97aa                	add	a5,a5,a0
    282c:	0007c503          	lbu	a0,0(a5)
    2830:	4761                	li	a4,24
    2832:	40a70533          	sub	a0,a4,a0
    2836:	8082                	ret
    2838:	010007b7          	lui	a5,0x1000
    283c:	00f56e63          	bltu	a0,a5,2858 <__clzsi2+0x5e>
    2840:	8161                	srli	a0,a0,0x18
    2842:	00001797          	auipc	a5,0x1
    2846:	d6678793          	addi	a5,a5,-666 # 35a8 <__clz_tab>
    284a:	97aa                	add	a5,a5,a0
    284c:	0007c503          	lbu	a0,0(a5)
    2850:	4721                	li	a4,8
    2852:	40a70533          	sub	a0,a4,a0
    2856:	8082                	ret
    2858:	8141                	srli	a0,a0,0x10
    285a:	00001797          	auipc	a5,0x1
    285e:	d4e78793          	addi	a5,a5,-690 # 35a8 <__clz_tab>
    2862:	97aa                	add	a5,a5,a0
    2864:	0007c503          	lbu	a0,0(a5)
    2868:	4741                	li	a4,16
    286a:	40a70533          	sub	a0,a4,a0
    286e:	8082                	ret

00002870 <siprintf>:
    2870:	7135                	addi	sp,sp,-160
    2872:	cb3e                	sw	a5,148(sp)
    2874:	800007b7          	lui	a5,0x80000
    2878:	fff7c793          	not	a5,a5
    287c:	ce3e                	sw	a5,28(sp)
    287e:	c83e                	sw	a5,16(sp)
    2880:	77c1                	lui	a5,0xffff0
    2882:	20878793          	addi	a5,a5,520 # ffff0208 <_eusrstack+0xdffe8208>
    2886:	c532                	sw	a2,136(sp)
    2888:	c736                	sw	a3,140(sp)
    288a:	c93a                	sw	a4,144(sp)
    288c:	cd42                	sw	a6,152(sp)
    288e:	cf46                	sw	a7,156(sp)
    2890:	ca3e                	sw	a5,20(sp)
    2892:	83c18793          	addi	a5,gp,-1988 # 200000ac <_impure_ptr>
    2896:	c42a                	sw	a0,8(sp)
    2898:	cc2a                	sw	a0,24(sp)
    289a:	4388                	lw	a0,0(a5)
    289c:	0134                	addi	a3,sp,136
    289e:	862e                	mv	a2,a1
    28a0:	002c                	addi	a1,sp,8
    28a2:	de86                	sw	ra,124(sp)
    28a4:	c236                	sw	a3,4(sp)
    28a6:	22f9                	jal	2a74 <_svfiprintf_r>
    28a8:	47a2                	lw	a5,8(sp)
    28aa:	00078023          	sb	zero,0(a5)
    28ae:	50f6                	lw	ra,124(sp)
    28b0:	610d                	addi	sp,sp,160
    28b2:	8082                	ret

000028b4 <_malloc_r>:
    28b4:	1101                	addi	sp,sp,-32
    28b6:	ca26                	sw	s1,20(sp)
    28b8:	00358493          	addi	s1,a1,3
    28bc:	98f1                	andi	s1,s1,-4
    28be:	ce06                	sw	ra,28(sp)
    28c0:	cc22                	sw	s0,24(sp)
    28c2:	c84a                	sw	s2,16(sp)
    28c4:	c64e                	sw	s3,12(sp)
    28c6:	04a1                	addi	s1,s1,8
    28c8:	47b1                	li	a5,12
    28ca:	04f4f563          	bgeu	s1,a5,2914 <_malloc_r+0x60>
    28ce:	44b1                	li	s1,12
    28d0:	04b4e463          	bltu	s1,a1,2918 <_malloc_r+0x64>
    28d4:	892a                	mv	s2,a0
    28d6:	113000ef          	jal	ra,31e8 <__malloc_lock>
    28da:	89018793          	addi	a5,gp,-1904 # 20000100 <__malloc_free_list>
    28de:	4398                	lw	a4,0(a5)
    28e0:	843a                	mv	s0,a4
    28e2:	e429                	bnez	s0,292c <_malloc_r+0x78>
    28e4:	89418793          	addi	a5,gp,-1900 # 20000104 <__malloc_sbrk_start>
    28e8:	439c                	lw	a5,0(a5)
    28ea:	e799                	bnez	a5,28f8 <_malloc_r+0x44>
    28ec:	4581                	li	a1,0
    28ee:	854a                	mv	a0,s2
    28f0:	7b4000ef          	jal	ra,30a4 <_sbrk_r>
    28f4:	88a1aa23          	sw	a0,-1900(gp) # 20000104 <__malloc_sbrk_start>
    28f8:	85a6                	mv	a1,s1
    28fa:	854a                	mv	a0,s2
    28fc:	7a8000ef          	jal	ra,30a4 <_sbrk_r>
    2900:	59fd                	li	s3,-1
    2902:	07351963          	bne	a0,s3,2974 <_malloc_r+0xc0>
    2906:	47b1                	li	a5,12
    2908:	00f92023          	sw	a5,0(s2)
    290c:	854a                	mv	a0,s2
    290e:	0dd000ef          	jal	ra,31ea <__malloc_unlock>
    2912:	a029                	j	291c <_malloc_r+0x68>
    2914:	fa04dee3          	bgez	s1,28d0 <_malloc_r+0x1c>
    2918:	47b1                	li	a5,12
    291a:	c11c                	sw	a5,0(a0)
    291c:	4501                	li	a0,0
    291e:	40f2                	lw	ra,28(sp)
    2920:	4462                	lw	s0,24(sp)
    2922:	44d2                	lw	s1,20(sp)
    2924:	4942                	lw	s2,16(sp)
    2926:	49b2                	lw	s3,12(sp)
    2928:	6105                	addi	sp,sp,32
    292a:	8082                	ret
    292c:	401c                	lw	a5,0(s0)
    292e:	8f85                	sub	a5,a5,s1
    2930:	0207cf63          	bltz	a5,296e <_malloc_r+0xba>
    2934:	46ad                	li	a3,11
    2936:	00f6f663          	bgeu	a3,a5,2942 <_malloc_r+0x8e>
    293a:	c01c                	sw	a5,0(s0)
    293c:	943e                	add	s0,s0,a5
    293e:	c004                	sw	s1,0(s0)
    2940:	a031                	j	294c <_malloc_r+0x98>
    2942:	405c                	lw	a5,4(s0)
    2944:	02871363          	bne	a4,s0,296a <_malloc_r+0xb6>
    2948:	88f1a823          	sw	a5,-1904(gp) # 20000100 <__malloc_free_list>
    294c:	854a                	mv	a0,s2
    294e:	09d000ef          	jal	ra,31ea <__malloc_unlock>
    2952:	00b40513          	addi	a0,s0,11
    2956:	00440793          	addi	a5,s0,4
    295a:	9961                	andi	a0,a0,-8
    295c:	40f50733          	sub	a4,a0,a5
    2960:	df5d                	beqz	a4,291e <_malloc_r+0x6a>
    2962:	943a                	add	s0,s0,a4
    2964:	8f89                	sub	a5,a5,a0
    2966:	c01c                	sw	a5,0(s0)
    2968:	bf5d                	j	291e <_malloc_r+0x6a>
    296a:	c35c                	sw	a5,4(a4)
    296c:	b7c5                	j	294c <_malloc_r+0x98>
    296e:	8722                	mv	a4,s0
    2970:	4040                	lw	s0,4(s0)
    2972:	bf85                	j	28e2 <_malloc_r+0x2e>
    2974:	00350413          	addi	s0,a0,3
    2978:	9871                	andi	s0,s0,-4
    297a:	fc8502e3          	beq	a0,s0,293e <_malloc_r+0x8a>
    297e:	40a405b3          	sub	a1,s0,a0
    2982:	854a                	mv	a0,s2
    2984:	2705                	jal	30a4 <_sbrk_r>
    2986:	fb351ce3          	bne	a0,s3,293e <_malloc_r+0x8a>
    298a:	bfb5                	j	2906 <_malloc_r+0x52>

0000298c <__ssputs_r>:
    298c:	1101                	addi	sp,sp,-32
    298e:	c84a                	sw	s2,16(sp)
    2990:	0085a903          	lw	s2,8(a1)
    2994:	cc22                	sw	s0,24(sp)
    2996:	c452                	sw	s4,8(sp)
    2998:	c05a                	sw	s6,0(sp)
    299a:	ce06                	sw	ra,28(sp)
    299c:	ca26                	sw	s1,20(sp)
    299e:	c64e                	sw	s3,12(sp)
    29a0:	c256                	sw	s5,4(sp)
    29a2:	842e                	mv	s0,a1
    29a4:	8b32                	mv	s6,a2
    29a6:	8a36                	mv	s4,a3
    29a8:	0926ed63          	bltu	a3,s2,2a42 <__ssputs_r+0xb6>
    29ac:	00c5d783          	lhu	a5,12(a1)
    29b0:	4807f713          	andi	a4,a5,1152
    29b4:	c749                	beqz	a4,2a3e <__ssputs_r+0xb2>
    29b6:	4004                	lw	s1,0(s0)
    29b8:	498c                	lw	a1,16(a1)
    29ba:	4858                	lw	a4,20(s0)
    29bc:	8aaa                	mv	s5,a0
    29be:	40b489b3          	sub	s3,s1,a1
    29c2:	448d                	li	s1,3
    29c4:	02e484b3          	mul	s1,s1,a4
    29c8:	4709                	li	a4,2
    29ca:	02e4c4b3          	div	s1,s1,a4
    29ce:	00168713          	addi	a4,a3,1 # fc000001 <_eusrstack+0xdbff8001>
    29d2:	974e                	add	a4,a4,s3
    29d4:	00e4f363          	bgeu	s1,a4,29da <__ssputs_r+0x4e>
    29d8:	84ba                	mv	s1,a4
    29da:	4007f793          	andi	a5,a5,1024
    29de:	c3c9                	beqz	a5,2a60 <__ssputs_r+0xd4>
    29e0:	85a6                	mv	a1,s1
    29e2:	8556                	mv	a0,s5
    29e4:	ed1ff0ef          	jal	ra,28b4 <_malloc_r>
    29e8:	892a                	mv	s2,a0
    29ea:	e50d                	bnez	a0,2a14 <__ssputs_r+0x88>
    29ec:	47b1                	li	a5,12
    29ee:	00faa023          	sw	a5,0(s5)
    29f2:	00c45783          	lhu	a5,12(s0)
    29f6:	557d                	li	a0,-1
    29f8:	0407e793          	ori	a5,a5,64
    29fc:	00f41623          	sh	a5,12(s0)
    2a00:	40f2                	lw	ra,28(sp)
    2a02:	4462                	lw	s0,24(sp)
    2a04:	44d2                	lw	s1,20(sp)
    2a06:	4942                	lw	s2,16(sp)
    2a08:	49b2                	lw	s3,12(sp)
    2a0a:	4a22                	lw	s4,8(sp)
    2a0c:	4a92                	lw	s5,4(sp)
    2a0e:	4b02                	lw	s6,0(sp)
    2a10:	6105                	addi	sp,sp,32
    2a12:	8082                	ret
    2a14:	480c                	lw	a1,16(s0)
    2a16:	864e                	mv	a2,s3
    2a18:	2dc1                	jal	30e8 <memcpy>
    2a1a:	00c45783          	lhu	a5,12(s0)
    2a1e:	b7f7f793          	andi	a5,a5,-1153
    2a22:	0807e793          	ori	a5,a5,128
    2a26:	00f41623          	sh	a5,12(s0)
    2a2a:	01242823          	sw	s2,16(s0)
    2a2e:	c844                	sw	s1,20(s0)
    2a30:	994e                	add	s2,s2,s3
    2a32:	413484b3          	sub	s1,s1,s3
    2a36:	01242023          	sw	s2,0(s0)
    2a3a:	c404                	sw	s1,8(s0)
    2a3c:	8952                	mv	s2,s4
    2a3e:	012a7363          	bgeu	s4,s2,2a44 <__ssputs_r+0xb8>
    2a42:	8952                	mv	s2,s4
    2a44:	4008                	lw	a0,0(s0)
    2a46:	864a                	mv	a2,s2
    2a48:	85da                	mv	a1,s6
    2a4a:	2f91                	jal	319e <memmove>
    2a4c:	441c                	lw	a5,8(s0)
    2a4e:	4501                	li	a0,0
    2a50:	412787b3          	sub	a5,a5,s2
    2a54:	c41c                	sw	a5,8(s0)
    2a56:	401c                	lw	a5,0(s0)
    2a58:	993e                	add	s2,s2,a5
    2a5a:	01242023          	sw	s2,0(s0)
    2a5e:	b74d                	j	2a00 <__ssputs_r+0x74>
    2a60:	8626                	mv	a2,s1
    2a62:	8556                	mv	a0,s5
    2a64:	031000ef          	jal	ra,3294 <_realloc_r>
    2a68:	892a                	mv	s2,a0
    2a6a:	f161                	bnez	a0,2a2a <__ssputs_r+0x9e>
    2a6c:	480c                	lw	a1,16(s0)
    2a6e:	8556                	mv	a0,s5
    2a70:	2fb5                	jal	31ec <_free_r>
    2a72:	bfad                	j	29ec <__ssputs_r+0x60>

00002a74 <_svfiprintf_r>:
    2a74:	00c5d783          	lhu	a5,12(a1)
    2a78:	7171                	addi	sp,sp,-176
    2a7a:	d326                	sw	s1,164(sp)
    2a7c:	d14a                	sw	s2,160(sp)
    2a7e:	cf4e                	sw	s3,156(sp)
    2a80:	d706                	sw	ra,172(sp)
    2a82:	d522                	sw	s0,168(sp)
    2a84:	cd52                	sw	s4,152(sp)
    2a86:	cb56                	sw	s5,148(sp)
    2a88:	c95a                	sw	s6,144(sp)
    2a8a:	c75e                	sw	s7,140(sp)
    2a8c:	c562                	sw	s8,136(sp)
    2a8e:	c366                	sw	s9,132(sp)
    2a90:	0807f793          	andi	a5,a5,128
    2a94:	89aa                	mv	s3,a0
    2a96:	892e                	mv	s2,a1
    2a98:	84b2                	mv	s1,a2
    2a9a:	c3b9                	beqz	a5,2ae0 <_svfiprintf_r+0x6c>
    2a9c:	499c                	lw	a5,16(a1)
    2a9e:	e3a9                	bnez	a5,2ae0 <_svfiprintf_r+0x6c>
    2aa0:	04000593          	li	a1,64
    2aa4:	c636                	sw	a3,12(sp)
    2aa6:	e0fff0ef          	jal	ra,28b4 <_malloc_r>
    2aaa:	00a92023          	sw	a0,0(s2)
    2aae:	00a92823          	sw	a0,16(s2)
    2ab2:	46b2                	lw	a3,12(sp)
    2ab4:	e115                	bnez	a0,2ad8 <_svfiprintf_r+0x64>
    2ab6:	47b1                	li	a5,12
    2ab8:	00f9a023          	sw	a5,0(s3)
    2abc:	557d                	li	a0,-1
    2abe:	50ba                	lw	ra,172(sp)
    2ac0:	542a                	lw	s0,168(sp)
    2ac2:	549a                	lw	s1,164(sp)
    2ac4:	590a                	lw	s2,160(sp)
    2ac6:	49fa                	lw	s3,156(sp)
    2ac8:	4a6a                	lw	s4,152(sp)
    2aca:	4ada                	lw	s5,148(sp)
    2acc:	4b4a                	lw	s6,144(sp)
    2ace:	4bba                	lw	s7,140(sp)
    2ad0:	4c2a                	lw	s8,136(sp)
    2ad2:	4c9a                	lw	s9,132(sp)
    2ad4:	614d                	addi	sp,sp,176
    2ad6:	8082                	ret
    2ad8:	04000793          	li	a5,64
    2adc:	00f92a23          	sw	a5,20(s2)
    2ae0:	02000793          	li	a5,32
    2ae4:	02f10ca3          	sb	a5,57(sp)
    2ae8:	03000793          	li	a5,48
    2aec:	da02                	sw	zero,52(sp)
    2aee:	02f10d23          	sb	a5,58(sp)
    2af2:	ce36                	sw	a3,28(sp)
    2af4:	02500b93          	li	s7,37
    2af8:	00001a97          	auipc	s5,0x1
    2afc:	c10a8a93          	addi	s5,s5,-1008 # 3708 <__sf_fake_stdout+0x20>
    2b00:	4c05                	li	s8,1
    2b02:	4b29                	li	s6,10
    2b04:	8426                	mv	s0,s1
    2b06:	00044783          	lbu	a5,0(s0)
    2b0a:	c399                	beqz	a5,2b10 <_svfiprintf_r+0x9c>
    2b0c:	09779c63          	bne	a5,s7,2ba4 <_svfiprintf_r+0x130>
    2b10:	40940cb3          	sub	s9,s0,s1
    2b14:	000c8e63          	beqz	s9,2b30 <_svfiprintf_r+0xbc>
    2b18:	86e6                	mv	a3,s9
    2b1a:	8626                	mv	a2,s1
    2b1c:	85ca                	mv	a1,s2
    2b1e:	854e                	mv	a0,s3
    2b20:	e6dff0ef          	jal	ra,298c <__ssputs_r>
    2b24:	57fd                	li	a5,-1
    2b26:	1af50163          	beq	a0,a5,2cc8 <_svfiprintf_r+0x254>
    2b2a:	56d2                	lw	a3,52(sp)
    2b2c:	96e6                	add	a3,a3,s9
    2b2e:	da36                	sw	a3,52(sp)
    2b30:	00044783          	lbu	a5,0(s0)
    2b34:	18078a63          	beqz	a5,2cc8 <_svfiprintf_r+0x254>
    2b38:	57fd                	li	a5,-1
    2b3a:	00140493          	addi	s1,s0,1
    2b3e:	d002                	sw	zero,32(sp)
    2b40:	d602                	sw	zero,44(sp)
    2b42:	d23e                	sw	a5,36(sp)
    2b44:	d402                	sw	zero,40(sp)
    2b46:	060101a3          	sb	zero,99(sp)
    2b4a:	dc82                	sw	zero,120(sp)
    2b4c:	0004c583          	lbu	a1,0(s1)
    2b50:	4615                	li	a2,5
    2b52:	8556                	mv	a0,s5
    2b54:	2bad                	jal	30ce <memchr>
    2b56:	00148413          	addi	s0,s1,1
    2b5a:	5782                	lw	a5,32(sp)
    2b5c:	e531                	bnez	a0,2ba8 <_svfiprintf_r+0x134>
    2b5e:	0107f713          	andi	a4,a5,16
    2b62:	c709                	beqz	a4,2b6c <_svfiprintf_r+0xf8>
    2b64:	02000713          	li	a4,32
    2b68:	06e101a3          	sb	a4,99(sp)
    2b6c:	0087f713          	andi	a4,a5,8
    2b70:	c709                	beqz	a4,2b7a <_svfiprintf_r+0x106>
    2b72:	02b00713          	li	a4,43
    2b76:	06e101a3          	sb	a4,99(sp)
    2b7a:	0004c683          	lbu	a3,0(s1)
    2b7e:	02a00713          	li	a4,42
    2b82:	02e68b63          	beq	a3,a4,2bb8 <_svfiprintf_r+0x144>
    2b86:	57b2                	lw	a5,44(sp)
    2b88:	8426                	mv	s0,s1
    2b8a:	4681                	li	a3,0
    2b8c:	4625                	li	a2,9
    2b8e:	00044703          	lbu	a4,0(s0)
    2b92:	00140593          	addi	a1,s0,1
    2b96:	fd070713          	addi	a4,a4,-48
    2b9a:	06e67463          	bgeu	a2,a4,2c02 <_svfiprintf_r+0x18e>
    2b9e:	c68d                	beqz	a3,2bc8 <_svfiprintf_r+0x154>
    2ba0:	d63e                	sw	a5,44(sp)
    2ba2:	a01d                	j	2bc8 <_svfiprintf_r+0x154>
    2ba4:	0405                	addi	s0,s0,1
    2ba6:	b785                	j	2b06 <_svfiprintf_r+0x92>
    2ba8:	41550533          	sub	a0,a0,s5
    2bac:	00ac1533          	sll	a0,s8,a0
    2bb0:	8fc9                	or	a5,a5,a0
    2bb2:	d03e                	sw	a5,32(sp)
    2bb4:	84a2                	mv	s1,s0
    2bb6:	bf59                	j	2b4c <_svfiprintf_r+0xd8>
    2bb8:	4772                	lw	a4,28(sp)
    2bba:	00470693          	addi	a3,a4,4
    2bbe:	4318                	lw	a4,0(a4)
    2bc0:	ce36                	sw	a3,28(sp)
    2bc2:	02074963          	bltz	a4,2bf4 <_svfiprintf_r+0x180>
    2bc6:	d63a                	sw	a4,44(sp)
    2bc8:	00044703          	lbu	a4,0(s0)
    2bcc:	02e00793          	li	a5,46
    2bd0:	04f71f63          	bne	a4,a5,2c2e <_svfiprintf_r+0x1ba>
    2bd4:	00144703          	lbu	a4,1(s0)
    2bd8:	02a00793          	li	a5,42
    2bdc:	02f71b63          	bne	a4,a5,2c12 <_svfiprintf_r+0x19e>
    2be0:	47f2                	lw	a5,28(sp)
    2be2:	0409                	addi	s0,s0,2
    2be4:	00478713          	addi	a4,a5,4
    2be8:	439c                	lw	a5,0(a5)
    2bea:	ce3a                	sw	a4,28(sp)
    2bec:	0207c163          	bltz	a5,2c0e <_svfiprintf_r+0x19a>
    2bf0:	d23e                	sw	a5,36(sp)
    2bf2:	a835                	j	2c2e <_svfiprintf_r+0x1ba>
    2bf4:	40e00733          	neg	a4,a4
    2bf8:	0027e793          	ori	a5,a5,2
    2bfc:	d63a                	sw	a4,44(sp)
    2bfe:	d03e                	sw	a5,32(sp)
    2c00:	b7e1                	j	2bc8 <_svfiprintf_r+0x154>
    2c02:	036787b3          	mul	a5,a5,s6
    2c06:	4685                	li	a3,1
    2c08:	842e                	mv	s0,a1
    2c0a:	97ba                	add	a5,a5,a4
    2c0c:	b749                	j	2b8e <_svfiprintf_r+0x11a>
    2c0e:	57fd                	li	a5,-1
    2c10:	b7c5                	j	2bf0 <_svfiprintf_r+0x17c>
    2c12:	0405                	addi	s0,s0,1
    2c14:	d202                	sw	zero,36(sp)
    2c16:	4681                	li	a3,0
    2c18:	4781                	li	a5,0
    2c1a:	4625                	li	a2,9
    2c1c:	00044703          	lbu	a4,0(s0)
    2c20:	00140593          	addi	a1,s0,1
    2c24:	fd070713          	addi	a4,a4,-48
    2c28:	06e67663          	bgeu	a2,a4,2c94 <_svfiprintf_r+0x220>
    2c2c:	f2f1                	bnez	a3,2bf0 <_svfiprintf_r+0x17c>
    2c2e:	00044583          	lbu	a1,0(s0)
    2c32:	460d                	li	a2,3
    2c34:	00001517          	auipc	a0,0x1
    2c38:	adc50513          	addi	a0,a0,-1316 # 3710 <__sf_fake_stdout+0x28>
    2c3c:	2949                	jal	30ce <memchr>
    2c3e:	cd11                	beqz	a0,2c5a <_svfiprintf_r+0x1e6>
    2c40:	00001797          	auipc	a5,0x1
    2c44:	ad078793          	addi	a5,a5,-1328 # 3710 <__sf_fake_stdout+0x28>
    2c48:	8d1d                	sub	a0,a0,a5
    2c4a:	04000793          	li	a5,64
    2c4e:	00a797b3          	sll	a5,a5,a0
    2c52:	5502                	lw	a0,32(sp)
    2c54:	0405                	addi	s0,s0,1
    2c56:	8d5d                	or	a0,a0,a5
    2c58:	d02a                	sw	a0,32(sp)
    2c5a:	00044583          	lbu	a1,0(s0)
    2c5e:	4619                	li	a2,6
    2c60:	00001517          	auipc	a0,0x1
    2c64:	ab450513          	addi	a0,a0,-1356 # 3714 <__sf_fake_stdout+0x2c>
    2c68:	00140493          	addi	s1,s0,1
    2c6c:	02b10c23          	sb	a1,56(sp)
    2c70:	29b9                	jal	30ce <memchr>
    2c72:	c525                	beqz	a0,2cda <_svfiprintf_r+0x266>
    2c74:	ffffd797          	auipc	a5,0xffffd
    2c78:	38c78793          	addi	a5,a5,908 # 0 <_sinit>
    2c7c:	e795                	bnez	a5,2ca8 <_svfiprintf_r+0x234>
    2c7e:	5702                	lw	a4,32(sp)
    2c80:	47f2                	lw	a5,28(sp)
    2c82:	10077713          	andi	a4,a4,256
    2c86:	cf09                	beqz	a4,2ca0 <_svfiprintf_r+0x22c>
    2c88:	0791                	addi	a5,a5,4
    2c8a:	ce3e                	sw	a5,28(sp)
    2c8c:	57d2                	lw	a5,52(sp)
    2c8e:	97d2                	add	a5,a5,s4
    2c90:	da3e                	sw	a5,52(sp)
    2c92:	bd8d                	j	2b04 <_svfiprintf_r+0x90>
    2c94:	036787b3          	mul	a5,a5,s6
    2c98:	4685                	li	a3,1
    2c9a:	842e                	mv	s0,a1
    2c9c:	97ba                	add	a5,a5,a4
    2c9e:	bfbd                	j	2c1c <_svfiprintf_r+0x1a8>
    2ca0:	079d                	addi	a5,a5,7
    2ca2:	9be1                	andi	a5,a5,-8
    2ca4:	07a1                	addi	a5,a5,8
    2ca6:	b7d5                	j	2c8a <_svfiprintf_r+0x216>
    2ca8:	0878                	addi	a4,sp,28
    2caa:	00000697          	auipc	a3,0x0
    2cae:	ce268693          	addi	a3,a3,-798 # 298c <__ssputs_r>
    2cb2:	864a                	mv	a2,s2
    2cb4:	100c                	addi	a1,sp,32
    2cb6:	854e                	mv	a0,s3
    2cb8:	00000097          	auipc	ra,0x0
    2cbc:	000000e7          	jalr	zero # 0 <_sinit>
    2cc0:	57fd                	li	a5,-1
    2cc2:	8a2a                	mv	s4,a0
    2cc4:	fcf514e3          	bne	a0,a5,2c8c <_svfiprintf_r+0x218>
    2cc8:	00c95783          	lhu	a5,12(s2)
    2ccc:	557d                	li	a0,-1
    2cce:	0407f793          	andi	a5,a5,64
    2cd2:	de0796e3          	bnez	a5,2abe <_svfiprintf_r+0x4a>
    2cd6:	5552                	lw	a0,52(sp)
    2cd8:	b3dd                	j	2abe <_svfiprintf_r+0x4a>
    2cda:	0878                	addi	a4,sp,28
    2cdc:	00000697          	auipc	a3,0x0
    2ce0:	cb068693          	addi	a3,a3,-848 # 298c <__ssputs_r>
    2ce4:	864a                	mv	a2,s2
    2ce6:	100c                	addi	a1,sp,32
    2ce8:	854e                	mv	a0,s3
    2cea:	2a01                	jal	2dfa <_printf_i>
    2cec:	bfd1                	j	2cc0 <_svfiprintf_r+0x24c>

00002cee <_printf_common>:
    2cee:	7179                	addi	sp,sp,-48
    2cf0:	ca56                	sw	s5,20(sp)
    2cf2:	499c                	lw	a5,16(a1)
    2cf4:	8aba                	mv	s5,a4
    2cf6:	4598                	lw	a4,8(a1)
    2cf8:	d422                	sw	s0,40(sp)
    2cfa:	d226                	sw	s1,36(sp)
    2cfc:	ce4e                	sw	s3,28(sp)
    2cfe:	cc52                	sw	s4,24(sp)
    2d00:	d606                	sw	ra,44(sp)
    2d02:	d04a                	sw	s2,32(sp)
    2d04:	c85a                	sw	s6,16(sp)
    2d06:	c65e                	sw	s7,12(sp)
    2d08:	89aa                	mv	s3,a0
    2d0a:	842e                	mv	s0,a1
    2d0c:	84b2                	mv	s1,a2
    2d0e:	8a36                	mv	s4,a3
    2d10:	00e7d363          	bge	a5,a4,2d16 <_printf_common+0x28>
    2d14:	87ba                	mv	a5,a4
    2d16:	c09c                	sw	a5,0(s1)
    2d18:	04344703          	lbu	a4,67(s0)
    2d1c:	c319                	beqz	a4,2d22 <_printf_common+0x34>
    2d1e:	0785                	addi	a5,a5,1
    2d20:	c09c                	sw	a5,0(s1)
    2d22:	401c                	lw	a5,0(s0)
    2d24:	0207f793          	andi	a5,a5,32
    2d28:	c781                	beqz	a5,2d30 <_printf_common+0x42>
    2d2a:	409c                	lw	a5,0(s1)
    2d2c:	0789                	addi	a5,a5,2
    2d2e:	c09c                	sw	a5,0(s1)
    2d30:	00042903          	lw	s2,0(s0)
    2d34:	00697913          	andi	s2,s2,6
    2d38:	00091a63          	bnez	s2,2d4c <_printf_common+0x5e>
    2d3c:	01940b13          	addi	s6,s0,25
    2d40:	5bfd                	li	s7,-1
    2d42:	445c                	lw	a5,12(s0)
    2d44:	4098                	lw	a4,0(s1)
    2d46:	8f99                	sub	a5,a5,a4
    2d48:	04f94c63          	blt	s2,a5,2da0 <_printf_common+0xb2>
    2d4c:	401c                	lw	a5,0(s0)
    2d4e:	04344683          	lbu	a3,67(s0)
    2d52:	0207f793          	andi	a5,a5,32
    2d56:	00d036b3          	snez	a3,a3
    2d5a:	eba5                	bnez	a5,2dca <_printf_common+0xdc>
    2d5c:	04340613          	addi	a2,s0,67
    2d60:	85d2                	mv	a1,s4
    2d62:	854e                	mv	a0,s3
    2d64:	9a82                	jalr	s5
    2d66:	57fd                	li	a5,-1
    2d68:	04f50363          	beq	a0,a5,2dae <_printf_common+0xc0>
    2d6c:	401c                	lw	a5,0(s0)
    2d6e:	4611                	li	a2,4
    2d70:	4098                	lw	a4,0(s1)
    2d72:	8b99                	andi	a5,a5,6
    2d74:	4454                	lw	a3,12(s0)
    2d76:	4481                	li	s1,0
    2d78:	00c79763          	bne	a5,a2,2d86 <_printf_common+0x98>
    2d7c:	40e684b3          	sub	s1,a3,a4
    2d80:	0004d363          	bgez	s1,2d86 <_printf_common+0x98>
    2d84:	4481                	li	s1,0
    2d86:	441c                	lw	a5,8(s0)
    2d88:	4818                	lw	a4,16(s0)
    2d8a:	00f75463          	bge	a4,a5,2d92 <_printf_common+0xa4>
    2d8e:	8f99                	sub	a5,a5,a4
    2d90:	94be                	add	s1,s1,a5
    2d92:	4901                	li	s2,0
    2d94:	0469                	addi	s0,s0,26
    2d96:	5b7d                	li	s6,-1
    2d98:	05249863          	bne	s1,s2,2de8 <_printf_common+0xfa>
    2d9c:	4501                	li	a0,0
    2d9e:	a809                	j	2db0 <_printf_common+0xc2>
    2da0:	4685                	li	a3,1
    2da2:	865a                	mv	a2,s6
    2da4:	85d2                	mv	a1,s4
    2da6:	854e                	mv	a0,s3
    2da8:	9a82                	jalr	s5
    2daa:	01751e63          	bne	a0,s7,2dc6 <_printf_common+0xd8>
    2dae:	557d                	li	a0,-1
    2db0:	50b2                	lw	ra,44(sp)
    2db2:	5422                	lw	s0,40(sp)
    2db4:	5492                	lw	s1,36(sp)
    2db6:	5902                	lw	s2,32(sp)
    2db8:	49f2                	lw	s3,28(sp)
    2dba:	4a62                	lw	s4,24(sp)
    2dbc:	4ad2                	lw	s5,20(sp)
    2dbe:	4b42                	lw	s6,16(sp)
    2dc0:	4bb2                	lw	s7,12(sp)
    2dc2:	6145                	addi	sp,sp,48
    2dc4:	8082                	ret
    2dc6:	0905                	addi	s2,s2,1
    2dc8:	bfad                	j	2d42 <_printf_common+0x54>
    2dca:	00d40733          	add	a4,s0,a3
    2dce:	03000613          	li	a2,48
    2dd2:	04c701a3          	sb	a2,67(a4)
    2dd6:	04544703          	lbu	a4,69(s0)
    2dda:	00168793          	addi	a5,a3,1
    2dde:	97a2                	add	a5,a5,s0
    2de0:	0689                	addi	a3,a3,2
    2de2:	04e781a3          	sb	a4,67(a5)
    2de6:	bf9d                	j	2d5c <_printf_common+0x6e>
    2de8:	4685                	li	a3,1
    2dea:	8622                	mv	a2,s0
    2dec:	85d2                	mv	a1,s4
    2dee:	854e                	mv	a0,s3
    2df0:	9a82                	jalr	s5
    2df2:	fb650ee3          	beq	a0,s6,2dae <_printf_common+0xc0>
    2df6:	0905                	addi	s2,s2,1
    2df8:	b745                	j	2d98 <_printf_common+0xaa>

00002dfa <_printf_i>:
    2dfa:	7179                	addi	sp,sp,-48
    2dfc:	d422                	sw	s0,40(sp)
    2dfe:	d226                	sw	s1,36(sp)
    2e00:	d04a                	sw	s2,32(sp)
    2e02:	ce4e                	sw	s3,28(sp)
    2e04:	d606                	sw	ra,44(sp)
    2e06:	cc52                	sw	s4,24(sp)
    2e08:	ca56                	sw	s5,20(sp)
    2e0a:	c85a                	sw	s6,16(sp)
    2e0c:	89b6                	mv	s3,a3
    2e0e:	0185c683          	lbu	a3,24(a1)
    2e12:	06900793          	li	a5,105
    2e16:	8932                	mv	s2,a2
    2e18:	84aa                	mv	s1,a0
    2e1a:	842e                	mv	s0,a1
    2e1c:	04358613          	addi	a2,a1,67
    2e20:	02f68d63          	beq	a3,a5,2e5a <_printf_i+0x60>
    2e24:	06d7e263          	bltu	a5,a3,2e88 <_printf_i+0x8e>
    2e28:	05800793          	li	a5,88
    2e2c:	18f68863          	beq	a3,a5,2fbc <_printf_i+0x1c2>
    2e30:	00d7ed63          	bltu	a5,a3,2e4a <_printf_i+0x50>
    2e34:	22068163          	beqz	a3,3056 <_printf_i+0x25c>
    2e38:	04300793          	li	a5,67
    2e3c:	0af68e63          	beq	a3,a5,2ef8 <_printf_i+0xfe>
    2e40:	04240a93          	addi	s5,s0,66
    2e44:	04d40123          	sb	a3,66(s0)
    2e48:	a0c9                	j	2f0a <_printf_i+0x110>
    2e4a:	06300793          	li	a5,99
    2e4e:	0af68563          	beq	a3,a5,2ef8 <_printf_i+0xfe>
    2e52:	06400793          	li	a5,100
    2e56:	fef695e3          	bne	a3,a5,2e40 <_printf_i+0x46>
    2e5a:	401c                	lw	a5,0(s0)
    2e5c:	4308                	lw	a0,0(a4)
    2e5e:	0807f693          	andi	a3,a5,128
    2e62:	00450593          	addi	a1,a0,4
    2e66:	c6c5                	beqz	a3,2f0e <_printf_i+0x114>
    2e68:	411c                	lw	a5,0(a0)
    2e6a:	c30c                	sw	a1,0(a4)
    2e6c:	0007d863          	bgez	a5,2e7c <_printf_i+0x82>
    2e70:	02d00713          	li	a4,45
    2e74:	40f007b3          	neg	a5,a5
    2e78:	04e401a3          	sb	a4,67(s0)
    2e7c:	00001697          	auipc	a3,0x1
    2e80:	8a068693          	addi	a3,a3,-1888 # 371c <__sf_fake_stdout+0x34>
    2e84:	4729                	li	a4,10
    2e86:	a86d                	j	2f40 <_printf_i+0x146>
    2e88:	07000793          	li	a5,112
    2e8c:	16f68463          	beq	a3,a5,2ff4 <_printf_i+0x1fa>
    2e90:	02d7e563          	bltu	a5,a3,2eba <_printf_i+0xc0>
    2e94:	06e00793          	li	a5,110
    2e98:	18f68b63          	beq	a3,a5,302e <_printf_i+0x234>
    2e9c:	06f00793          	li	a5,111
    2ea0:	faf690e3          	bne	a3,a5,2e40 <_printf_i+0x46>
    2ea4:	400c                	lw	a1,0(s0)
    2ea6:	431c                	lw	a5,0(a4)
    2ea8:	0805f813          	andi	a6,a1,128
    2eac:	00478513          	addi	a0,a5,4
    2eb0:	06080763          	beqz	a6,2f1e <_printf_i+0x124>
    2eb4:	c308                	sw	a0,0(a4)
    2eb6:	439c                	lw	a5,0(a5)
    2eb8:	a88d                	j	2f2a <_printf_i+0x130>
    2eba:	07500793          	li	a5,117
    2ebe:	fef683e3          	beq	a3,a5,2ea4 <_printf_i+0xaa>
    2ec2:	07800793          	li	a5,120
    2ec6:	12f68b63          	beq	a3,a5,2ffc <_printf_i+0x202>
    2eca:	07300793          	li	a5,115
    2ece:	f6f699e3          	bne	a3,a5,2e40 <_printf_i+0x46>
    2ed2:	431c                	lw	a5,0(a4)
    2ed4:	41d0                	lw	a2,4(a1)
    2ed6:	4581                	li	a1,0
    2ed8:	00478693          	addi	a3,a5,4
    2edc:	c314                	sw	a3,0(a4)
    2ede:	0007aa83          	lw	s5,0(a5)
    2ee2:	8556                	mv	a0,s5
    2ee4:	22ed                	jal	30ce <memchr>
    2ee6:	c501                	beqz	a0,2eee <_printf_i+0xf4>
    2ee8:	41550533          	sub	a0,a0,s5
    2eec:	c048                	sw	a0,4(s0)
    2eee:	405c                	lw	a5,4(s0)
    2ef0:	c81c                	sw	a5,16(s0)
    2ef2:	040401a3          	sb	zero,67(s0)
    2ef6:	a871                	j	2f92 <_printf_i+0x198>
    2ef8:	431c                	lw	a5,0(a4)
    2efa:	04240a93          	addi	s5,s0,66
    2efe:	00478693          	addi	a3,a5,4
    2f02:	439c                	lw	a5,0(a5)
    2f04:	c314                	sw	a3,0(a4)
    2f06:	04f40123          	sb	a5,66(s0)
    2f0a:	4785                	li	a5,1
    2f0c:	b7d5                	j	2ef0 <_printf_i+0xf6>
    2f0e:	0407f693          	andi	a3,a5,64
    2f12:	411c                	lw	a5,0(a0)
    2f14:	c30c                	sw	a1,0(a4)
    2f16:	dab9                	beqz	a3,2e6c <_printf_i+0x72>
    2f18:	07c2                	slli	a5,a5,0x10
    2f1a:	87c1                	srai	a5,a5,0x10
    2f1c:	bf81                	j	2e6c <_printf_i+0x72>
    2f1e:	0405f593          	andi	a1,a1,64
    2f22:	c308                	sw	a0,0(a4)
    2f24:	d9c9                	beqz	a1,2eb6 <_printf_i+0xbc>
    2f26:	0007d783          	lhu	a5,0(a5)
    2f2a:	06f00713          	li	a4,111
    2f2e:	0ee68863          	beq	a3,a4,301e <_printf_i+0x224>
    2f32:	00000697          	auipc	a3,0x0
    2f36:	7ea68693          	addi	a3,a3,2026 # 371c <__sf_fake_stdout+0x34>
    2f3a:	4729                	li	a4,10
    2f3c:	040401a3          	sb	zero,67(s0)
    2f40:	404c                	lw	a1,4(s0)
    2f42:	c40c                	sw	a1,8(s0)
    2f44:	0005c563          	bltz	a1,2f4e <_printf_i+0x154>
    2f48:	4008                	lw	a0,0(s0)
    2f4a:	996d                	andi	a0,a0,-5
    2f4c:	c008                	sw	a0,0(s0)
    2f4e:	e399                	bnez	a5,2f54 <_printf_i+0x15a>
    2f50:	8ab2                	mv	s5,a2
    2f52:	cd91                	beqz	a1,2f6e <_printf_i+0x174>
    2f54:	8ab2                	mv	s5,a2
    2f56:	02e7f5b3          	remu	a1,a5,a4
    2f5a:	1afd                	addi	s5,s5,-1
    2f5c:	95b6                	add	a1,a1,a3
    2f5e:	0005c583          	lbu	a1,0(a1)
    2f62:	00ba8023          	sb	a1,0(s5)
    2f66:	02e7d5b3          	divu	a1,a5,a4
    2f6a:	0ce7f063          	bgeu	a5,a4,302a <_printf_i+0x230>
    2f6e:	47a1                	li	a5,8
    2f70:	00f71e63          	bne	a4,a5,2f8c <_printf_i+0x192>
    2f74:	401c                	lw	a5,0(s0)
    2f76:	8b85                	andi	a5,a5,1
    2f78:	cb91                	beqz	a5,2f8c <_printf_i+0x192>
    2f7a:	4058                	lw	a4,4(s0)
    2f7c:	481c                	lw	a5,16(s0)
    2f7e:	00e7c763          	blt	a5,a4,2f8c <_printf_i+0x192>
    2f82:	03000793          	li	a5,48
    2f86:	fefa8fa3          	sb	a5,-1(s5)
    2f8a:	1afd                	addi	s5,s5,-1
    2f8c:	41560633          	sub	a2,a2,s5
    2f90:	c810                	sw	a2,16(s0)
    2f92:	874e                	mv	a4,s3
    2f94:	86ca                	mv	a3,s2
    2f96:	0070                	addi	a2,sp,12
    2f98:	85a2                	mv	a1,s0
    2f9a:	8526                	mv	a0,s1
    2f9c:	d53ff0ef          	jal	ra,2cee <_printf_common>
    2fa0:	5a7d                	li	s4,-1
    2fa2:	0b451e63          	bne	a0,s4,305e <_printf_i+0x264>
    2fa6:	557d                	li	a0,-1
    2fa8:	50b2                	lw	ra,44(sp)
    2faa:	5422                	lw	s0,40(sp)
    2fac:	5492                	lw	s1,36(sp)
    2fae:	5902                	lw	s2,32(sp)
    2fb0:	49f2                	lw	s3,28(sp)
    2fb2:	4a62                	lw	s4,24(sp)
    2fb4:	4ad2                	lw	s5,20(sp)
    2fb6:	4b42                	lw	s6,16(sp)
    2fb8:	6145                	addi	sp,sp,48
    2fba:	8082                	ret
    2fbc:	04d582a3          	sb	a3,69(a1)
    2fc0:	00000697          	auipc	a3,0x0
    2fc4:	75c68693          	addi	a3,a3,1884 # 371c <__sf_fake_stdout+0x34>
    2fc8:	400c                	lw	a1,0(s0)
    2fca:	4308                	lw	a0,0(a4)
    2fcc:	0805f813          	andi	a6,a1,128
    2fd0:	411c                	lw	a5,0(a0)
    2fd2:	0511                	addi	a0,a0,4
    2fd4:	02080d63          	beqz	a6,300e <_printf_i+0x214>
    2fd8:	c308                	sw	a0,0(a4)
    2fda:	0015f713          	andi	a4,a1,1
    2fde:	c701                	beqz	a4,2fe6 <_printf_i+0x1ec>
    2fe0:	0205e593          	ori	a1,a1,32
    2fe4:	c00c                	sw	a1,0(s0)
    2fe6:	4741                	li	a4,16
    2fe8:	fbb1                	bnez	a5,2f3c <_printf_i+0x142>
    2fea:	400c                	lw	a1,0(s0)
    2fec:	fdf5f593          	andi	a1,a1,-33
    2ff0:	c00c                	sw	a1,0(s0)
    2ff2:	b7a9                	j	2f3c <_printf_i+0x142>
    2ff4:	419c                	lw	a5,0(a1)
    2ff6:	0207e793          	ori	a5,a5,32
    2ffa:	c19c                	sw	a5,0(a1)
    2ffc:	07800793          	li	a5,120
    3000:	04f402a3          	sb	a5,69(s0)
    3004:	00000697          	auipc	a3,0x0
    3008:	72c68693          	addi	a3,a3,1836 # 3730 <__sf_fake_stdout+0x48>
    300c:	bf75                	j	2fc8 <_printf_i+0x1ce>
    300e:	0405f813          	andi	a6,a1,64
    3012:	c308                	sw	a0,0(a4)
    3014:	fc0803e3          	beqz	a6,2fda <_printf_i+0x1e0>
    3018:	07c2                	slli	a5,a5,0x10
    301a:	83c1                	srli	a5,a5,0x10
    301c:	bf7d                	j	2fda <_printf_i+0x1e0>
    301e:	00000697          	auipc	a3,0x0
    3022:	6fe68693          	addi	a3,a3,1790 # 371c <__sf_fake_stdout+0x34>
    3026:	4721                	li	a4,8
    3028:	bf11                	j	2f3c <_printf_i+0x142>
    302a:	87ae                	mv	a5,a1
    302c:	b72d                	j	2f56 <_printf_i+0x15c>
    302e:	4194                	lw	a3,0(a1)
    3030:	431c                	lw	a5,0(a4)
    3032:	49cc                	lw	a1,20(a1)
    3034:	0806f813          	andi	a6,a3,128
    3038:	00478513          	addi	a0,a5,4
    303c:	00080663          	beqz	a6,3048 <_printf_i+0x24e>
    3040:	c308                	sw	a0,0(a4)
    3042:	439c                	lw	a5,0(a5)
    3044:	c38c                	sw	a1,0(a5)
    3046:	a801                	j	3056 <_printf_i+0x25c>
    3048:	c308                	sw	a0,0(a4)
    304a:	0406f693          	andi	a3,a3,64
    304e:	439c                	lw	a5,0(a5)
    3050:	daf5                	beqz	a3,3044 <_printf_i+0x24a>
    3052:	00b79023          	sh	a1,0(a5)
    3056:	00042823          	sw	zero,16(s0)
    305a:	8ab2                	mv	s5,a2
    305c:	bf1d                	j	2f92 <_printf_i+0x198>
    305e:	4814                	lw	a3,16(s0)
    3060:	8656                	mv	a2,s5
    3062:	85ca                	mv	a1,s2
    3064:	8526                	mv	a0,s1
    3066:	9982                	jalr	s3
    3068:	f3450fe3          	beq	a0,s4,2fa6 <_printf_i+0x1ac>
    306c:	401c                	lw	a5,0(s0)
    306e:	8b89                	andi	a5,a5,2
    3070:	e78d                	bnez	a5,309a <_printf_i+0x2a0>
    3072:	47b2                	lw	a5,12(sp)
    3074:	4448                	lw	a0,12(s0)
    3076:	f2f559e3          	bge	a0,a5,2fa8 <_printf_i+0x1ae>
    307a:	853e                	mv	a0,a5
    307c:	b735                	j	2fa8 <_printf_i+0x1ae>
    307e:	4685                	li	a3,1
    3080:	8656                	mv	a2,s5
    3082:	85ca                	mv	a1,s2
    3084:	8526                	mv	a0,s1
    3086:	9982                	jalr	s3
    3088:	f1650fe3          	beq	a0,s6,2fa6 <_printf_i+0x1ac>
    308c:	0a05                	addi	s4,s4,1
    308e:	445c                	lw	a5,12(s0)
    3090:	4732                	lw	a4,12(sp)
    3092:	8f99                	sub	a5,a5,a4
    3094:	fefa45e3          	blt	s4,a5,307e <_printf_i+0x284>
    3098:	bfe9                	j	3072 <_printf_i+0x278>
    309a:	4a01                	li	s4,0
    309c:	01940a93          	addi	s5,s0,25
    30a0:	5b7d                	li	s6,-1
    30a2:	b7f5                	j	308e <_printf_i+0x294>

000030a4 <_sbrk_r>:
    30a4:	1141                	addi	sp,sp,-16
    30a6:	c422                	sw	s0,8(sp)
    30a8:	842a                	mv	s0,a0
    30aa:	852e                	mv	a0,a1
    30ac:	ca01a023          	sw	zero,-864(gp) # 20000510 <errno>
    30b0:	c606                	sw	ra,12(sp)
    30b2:	b6eff0ef          	jal	ra,2420 <_sbrk>
    30b6:	57fd                	li	a5,-1
    30b8:	00f51763          	bne	a0,a5,30c6 <_sbrk_r+0x22>
    30bc:	ca018793          	addi	a5,gp,-864 # 20000510 <errno>
    30c0:	439c                	lw	a5,0(a5)
    30c2:	c391                	beqz	a5,30c6 <_sbrk_r+0x22>
    30c4:	c01c                	sw	a5,0(s0)
    30c6:	40b2                	lw	ra,12(sp)
    30c8:	4422                	lw	s0,8(sp)
    30ca:	0141                	addi	sp,sp,16
    30cc:	8082                	ret

000030ce <memchr>:
    30ce:	0ff5f593          	andi	a1,a1,255
    30d2:	962a                	add	a2,a2,a0
    30d4:	00c51463          	bne	a0,a2,30dc <memchr+0xe>
    30d8:	4501                	li	a0,0
    30da:	8082                	ret
    30dc:	00054783          	lbu	a5,0(a0)
    30e0:	feb78de3          	beq	a5,a1,30da <memchr+0xc>
    30e4:	0505                	addi	a0,a0,1
    30e6:	b7fd                	j	30d4 <memchr+0x6>

000030e8 <memcpy>:
    30e8:	00a5c7b3          	xor	a5,a1,a0
    30ec:	8b8d                	andi	a5,a5,3
    30ee:	00c50733          	add	a4,a0,a2
    30f2:	e781                	bnez	a5,30fa <memcpy+0x12>
    30f4:	478d                	li	a5,3
    30f6:	00c7ee63          	bltu	a5,a2,3112 <memcpy+0x2a>
    30fa:	87aa                	mv	a5,a0
    30fc:	0ae57063          	bgeu	a0,a4,319c <memcpy+0xb4>
    3100:	0005c683          	lbu	a3,0(a1)
    3104:	0785                	addi	a5,a5,1
    3106:	0585                	addi	a1,a1,1
    3108:	fed78fa3          	sb	a3,-1(a5)
    310c:	fee7eae3          	bltu	a5,a4,3100 <memcpy+0x18>
    3110:	8082                	ret
    3112:	00357693          	andi	a3,a0,3
    3116:	87aa                	mv	a5,a0
    3118:	ca91                	beqz	a3,312c <memcpy+0x44>
    311a:	0005c683          	lbu	a3,0(a1)
    311e:	0785                	addi	a5,a5,1
    3120:	0585                	addi	a1,a1,1
    3122:	fed78fa3          	sb	a3,-1(a5)
    3126:	0037f693          	andi	a3,a5,3
    312a:	b7fd                	j	3118 <memcpy+0x30>
    312c:	ffc77693          	andi	a3,a4,-4
    3130:	fe068613          	addi	a2,a3,-32
    3134:	06c7f063          	bgeu	a5,a2,3194 <memcpy+0xac>
    3138:	0005a383          	lw	t2,0(a1)
    313c:	0045a283          	lw	t0,4(a1)
    3140:	0085af83          	lw	t6,8(a1)
    3144:	00c5af03          	lw	t5,12(a1)
    3148:	0105ae83          	lw	t4,16(a1)
    314c:	0145ae03          	lw	t3,20(a1)
    3150:	0185a303          	lw	t1,24(a1)
    3154:	01c5a883          	lw	a7,28(a1)
    3158:	02458593          	addi	a1,a1,36
    315c:	0077a023          	sw	t2,0(a5)
    3160:	ffc5a803          	lw	a6,-4(a1)
    3164:	0057a223          	sw	t0,4(a5)
    3168:	01f7a423          	sw	t6,8(a5)
    316c:	01e7a623          	sw	t5,12(a5)
    3170:	01d7a823          	sw	t4,16(a5)
    3174:	01c7aa23          	sw	t3,20(a5)
    3178:	0067ac23          	sw	t1,24(a5)
    317c:	0117ae23          	sw	a7,28(a5)
    3180:	02478793          	addi	a5,a5,36
    3184:	ff07ae23          	sw	a6,-4(a5)
    3188:	b775                	j	3134 <memcpy+0x4c>
    318a:	4190                	lw	a2,0(a1)
    318c:	0791                	addi	a5,a5,4
    318e:	0591                	addi	a1,a1,4
    3190:	fec7ae23          	sw	a2,-4(a5)
    3194:	fed7ebe3          	bltu	a5,a3,318a <memcpy+0xa2>
    3198:	f6e7e4e3          	bltu	a5,a4,3100 <memcpy+0x18>
    319c:	8082                	ret

0000319e <memmove>:
    319e:	04a5f363          	bgeu	a1,a0,31e4 <memmove+0x46>
    31a2:	00c586b3          	add	a3,a1,a2
    31a6:	02d57f63          	bgeu	a0,a3,31e4 <memmove+0x46>
    31aa:	fff64593          	not	a1,a2
    31ae:	4781                	li	a5,0
    31b0:	17fd                	addi	a5,a5,-1
    31b2:	00f59363          	bne	a1,a5,31b8 <memmove+0x1a>
    31b6:	8082                	ret
    31b8:	00f68733          	add	a4,a3,a5
    31bc:	00074803          	lbu	a6,0(a4)
    31c0:	00c78733          	add	a4,a5,a2
    31c4:	972a                	add	a4,a4,a0
    31c6:	01070023          	sb	a6,0(a4)
    31ca:	b7dd                	j	31b0 <memmove+0x12>
    31cc:	00f58733          	add	a4,a1,a5
    31d0:	00074683          	lbu	a3,0(a4)
    31d4:	00f50733          	add	a4,a0,a5
    31d8:	0785                	addi	a5,a5,1
    31da:	00d70023          	sb	a3,0(a4)
    31de:	fef617e3          	bne	a2,a5,31cc <memmove+0x2e>
    31e2:	8082                	ret
    31e4:	4781                	li	a5,0
    31e6:	bfe5                	j	31de <memmove+0x40>

000031e8 <__malloc_lock>:
    31e8:	8082                	ret

000031ea <__malloc_unlock>:
    31ea:	8082                	ret

000031ec <_free_r>:
    31ec:	c1dd                	beqz	a1,3292 <_free_r+0xa6>
    31ee:	ffc5a783          	lw	a5,-4(a1)
    31f2:	1141                	addi	sp,sp,-16
    31f4:	c422                	sw	s0,8(sp)
    31f6:	c606                	sw	ra,12(sp)
    31f8:	c226                	sw	s1,4(sp)
    31fa:	ffc58413          	addi	s0,a1,-4
    31fe:	0007d363          	bgez	a5,3204 <_free_r+0x18>
    3202:	943e                	add	s0,s0,a5
    3204:	84aa                	mv	s1,a0
    3206:	fe3ff0ef          	jal	ra,31e8 <__malloc_lock>
    320a:	89018793          	addi	a5,gp,-1904 # 20000100 <__malloc_free_list>
    320e:	439c                	lw	a5,0(a5)
    3210:	ef81                	bnez	a5,3228 <_free_r+0x3c>
    3212:	00042223          	sw	zero,4(s0)
    3216:	8881a823          	sw	s0,-1904(gp) # 20000100 <__malloc_free_list>
    321a:	4422                	lw	s0,8(sp)
    321c:	40b2                	lw	ra,12(sp)
    321e:	8526                	mv	a0,s1
    3220:	4492                	lw	s1,4(sp)
    3222:	0141                	addi	sp,sp,16
    3224:	fc7ff06f          	j	31ea <__malloc_unlock>
    3228:	00f47e63          	bgeu	s0,a5,3244 <_free_r+0x58>
    322c:	4014                	lw	a3,0(s0)
    322e:	00d40733          	add	a4,s0,a3
    3232:	00e79663          	bne	a5,a4,323e <_free_r+0x52>
    3236:	4398                	lw	a4,0(a5)
    3238:	43dc                	lw	a5,4(a5)
    323a:	9736                	add	a4,a4,a3
    323c:	c018                	sw	a4,0(s0)
    323e:	c05c                	sw	a5,4(s0)
    3240:	bfd9                	j	3216 <_free_r+0x2a>
    3242:	87ba                	mv	a5,a4
    3244:	43d8                	lw	a4,4(a5)
    3246:	c319                	beqz	a4,324c <_free_r+0x60>
    3248:	fee47de3          	bgeu	s0,a4,3242 <_free_r+0x56>
    324c:	4394                	lw	a3,0(a5)
    324e:	00d78633          	add	a2,a5,a3
    3252:	00861f63          	bne	a2,s0,3270 <_free_r+0x84>
    3256:	4010                	lw	a2,0(s0)
    3258:	96b2                	add	a3,a3,a2
    325a:	c394                	sw	a3,0(a5)
    325c:	00d78633          	add	a2,a5,a3
    3260:	fac71de3          	bne	a4,a2,321a <_free_r+0x2e>
    3264:	4310                	lw	a2,0(a4)
    3266:	4358                	lw	a4,4(a4)
    3268:	96b2                	add	a3,a3,a2
    326a:	c394                	sw	a3,0(a5)
    326c:	c3d8                	sw	a4,4(a5)
    326e:	b775                	j	321a <_free_r+0x2e>
    3270:	00c47563          	bgeu	s0,a2,327a <_free_r+0x8e>
    3274:	47b1                	li	a5,12
    3276:	c09c                	sw	a5,0(s1)
    3278:	b74d                	j	321a <_free_r+0x2e>
    327a:	4010                	lw	a2,0(s0)
    327c:	00c406b3          	add	a3,s0,a2
    3280:	00d71663          	bne	a4,a3,328c <_free_r+0xa0>
    3284:	4314                	lw	a3,0(a4)
    3286:	4358                	lw	a4,4(a4)
    3288:	96b2                	add	a3,a3,a2
    328a:	c014                	sw	a3,0(s0)
    328c:	c058                	sw	a4,4(s0)
    328e:	c3c0                	sw	s0,4(a5)
    3290:	b769                	j	321a <_free_r+0x2e>
    3292:	8082                	ret

00003294 <_realloc_r>:
    3294:	e581                	bnez	a1,329c <_realloc_r+0x8>
    3296:	85b2                	mv	a1,a2
    3298:	e1cff06f          	j	28b4 <_malloc_r>
    329c:	1101                	addi	sp,sp,-32
    329e:	cc22                	sw	s0,24(sp)
    32a0:	ce06                	sw	ra,28(sp)
    32a2:	ca26                	sw	s1,20(sp)
    32a4:	c84a                	sw	s2,16(sp)
    32a6:	c64e                	sw	s3,12(sp)
    32a8:	8432                	mv	s0,a2
    32aa:	ee01                	bnez	a2,32c2 <_realloc_r+0x2e>
    32ac:	f41ff0ef          	jal	ra,31ec <_free_r>
    32b0:	4901                	li	s2,0
    32b2:	40f2                	lw	ra,28(sp)
    32b4:	4462                	lw	s0,24(sp)
    32b6:	854a                	mv	a0,s2
    32b8:	44d2                	lw	s1,20(sp)
    32ba:	4942                	lw	s2,16(sp)
    32bc:	49b2                	lw	s3,12(sp)
    32be:	6105                	addi	sp,sp,32
    32c0:	8082                	ret
    32c2:	84ae                	mv	s1,a1
    32c4:	89aa                	mv	s3,a0
    32c6:	201d                	jal	32ec <_malloc_usable_size_r>
    32c8:	8926                	mv	s2,s1
    32ca:	fe8574e3          	bgeu	a0,s0,32b2 <_realloc_r+0x1e>
    32ce:	85a2                	mv	a1,s0
    32d0:	854e                	mv	a0,s3
    32d2:	de2ff0ef          	jal	ra,28b4 <_malloc_r>
    32d6:	892a                	mv	s2,a0
    32d8:	dd69                	beqz	a0,32b2 <_realloc_r+0x1e>
    32da:	85a6                	mv	a1,s1
    32dc:	8622                	mv	a2,s0
    32de:	e0bff0ef          	jal	ra,30e8 <memcpy>
    32e2:	85a6                	mv	a1,s1
    32e4:	854e                	mv	a0,s3
    32e6:	f07ff0ef          	jal	ra,31ec <_free_r>
    32ea:	b7e1                	j	32b2 <_realloc_r+0x1e>

000032ec <_malloc_usable_size_r>:
    32ec:	ffc5a783          	lw	a5,-4(a1)
    32f0:	ffc78513          	addi	a0,a5,-4
    32f4:	0007d563          	bgez	a5,32fe <_malloc_usable_size_r+0x12>
    32f8:	95aa                	add	a1,a1,a0
    32fa:	419c                	lw	a5,0(a1)
    32fc:	953e                	add	a0,a0,a5
    32fe:	8082                	ret

00003300 <Font6x8>:
	...
    3308:	4f00 0000 0000 0007 0007 1400 147f 147f     .O..............
    3318:	2400 7f2a 122a 2300 0813 6264 3600 5549     .$*.*..#..db.6IU
    3328:	5022 0000 0305 0000 0000 221c 0041 0000     "P........."A...
    3338:	2241 001c 1400 3e08 1408 0800 3e08 0808     A".....>.....>..
    3348:	0000 3050 0000 0800 0808 0808 0000 6060     ..P0..........``
    3358:	0000 2000 0810 0204 3e00 4951 3e45 0000     ... .....>QIE>..
    3368:	7f42 0040 4200 5161 4649 2100 4541 314b     B.@..BaQIF.!AEK1
    3378:	1800 1214 107f 2700 4545 3945 3c00 494a     .......'EEE9.<JI
    3388:	3049 0100 0971 0305 3600 4949 3649 0600     I0..q....6III6..
    3398:	4949 1e29 0000 3636 0000 0000 3656 0000     II)...66....V6..
    33a8:	0800 2214 0041 1400 1414 1414 0000 2241     ..."A.........A"
    33b8:	0814 0200 5101 0609 3200 7949 3e41 7e00     .....Q...2IyA>.~
    33c8:	1111 7e11 7f00 4949 3e49 3e00 4141 2241     ...~..III>.>AAA"
    33d8:	7f00 4141 1c22 7f00 4949 4149 7f00 0909     ..AA"...IIIA....
    33e8:	0109 3e00 4941 7a49 7f00 0808 7f08 0000     ...>AIIz........
    33f8:	7f41 0041 2000 4140 013f 7f00 1408 4122     A.A.. @A?....."A
    3408:	7f00 4040 4040 7f00 0402 7f02 7f00 0804     ..@@@@..........
    3418:	7f10 3e00 4141 3e41 7f00 0909 0609 3e00     ...>AAA>.......>
    3428:	5141 5e21 7f00 1909 4629 4600 4949 3149     AQ!^....)F.FIII1
    3438:	0100 7f01 0101 3f00 4040 3f40 1f00 4020     .......?@@@?.. @
    3448:	1f20 3f00 3840 3f40 6300 0814 6314 0300      ..?@8@?.c...c..
    3458:	7804 0304 6100 4951 4345 0000 417f 0041     .x...aQIEC...AA.
    3468:	1500 7c16 1516 0000 4141 007f 0400 0102     ...|....AA......
    3478:	0402 4000 4040 4040 0000 0201 0004 2000     ...@@@@@....... 
    3488:	5454 7854 7f00 4448 3844 3800 4444 2044     TTTx..HDD8.8DDD 
    3498:	3800 4444 7f48 3800 5454 1854 0800 097e     .8DDH..8TTT...~.
    34a8:	0201 0c00 5252 3e52 7f00 0408 7804 0000     ....RRR>.....x..
    34b8:	7d44 0040 2000 4440 003d 7f00 2810 0044     D}@.. @D=....(D.
    34c8:	0000 7f41 0040 7e00 0c02 7c02 7e00 0204     ..A.@..~...|.~..
    34d8:	7c02 3800 4444 3844 7c00 1414 0814 0800     .|.8DDD8.|......
    34e8:	1414 7c18 7c00 0408 0804 4800 5454 2054     ...|.|.....HTTT 
    34f8:	0400 443f 2040 3c00 4040 7c20 1c00 4020     ..?D@ .<@@ |.. @
    3508:	1c20 3c00 3040 3c40 4400 1028 4428 0c00      ..<@0@<.D(.(D..
    3518:	5050 3c50 4400 5464 444c 0000 3025 6434     PPP<.DdTLD..%04d
    3528:	0000 0000 3025 6432 0000 0000 3025 6434     ....%02d....%04d
    3538:	416d 0000 3025 6433 0000 0000 0000 4188     mA..%03d.......A
    3548:	0000 4208 3a58 0000 3a59 0000 314d 003a     ...BX:..Y:..M1:.
    3558:	3a54 0000 324d 003a 334d 003a 344d 003a     T:..M2:.M3:.M4:.
    3568:	f05e ffff efb0 ffff efb0 ffff efae ffff     ^...............
    3578:	efb4 ffff efb4 ffff ef84 ffff efae ffff     ................
    3588:	efb4 ffff ef84 ffff efb4 ffff efae ffff     ................
    3598:	f04c ffff f04c ffff f04c ffff ef84 ffff     L...L...L.......

000035a8 <__clz_tab>:
    35a8:	0100 0202 0303 0303 0404 0404 0404 0404     ................
    35b8:	0505 0505 0505 0505 0505 0505 0505 0505     ................
    35c8:	0606 0606 0606 0606 0606 0606 0606 0606     ................
    35d8:	0606 0606 0606 0606 0606 0606 0606 0606     ................
    35e8:	0707 0707 0707 0707 0707 0707 0707 0707     ................
    35f8:	0707 0707 0707 0707 0707 0707 0707 0707     ................
    3608:	0707 0707 0707 0707 0707 0707 0707 0707     ................
    3618:	0707 0707 0707 0707 0707 0707 0707 0707     ................
    3628:	0808 0808 0808 0808 0808 0808 0808 0808     ................
    3638:	0808 0808 0808 0808 0808 0808 0808 0808     ................
    3648:	0808 0808 0808 0808 0808 0808 0808 0808     ................
    3658:	0808 0808 0808 0808 0808 0808 0808 0808     ................
    3668:	0808 0808 0808 0808 0808 0808 0808 0808     ................
    3678:	0808 0808 0808 0808 0808 0808 0808 0808     ................
    3688:	0808 0808 0808 0808 0808 0808 0808 0808     ................
    3698:	0808 0808 0808 0808 0808 0808 0808 0808     ................

000036a8 <__sf_fake_stderr>:
	...

000036c8 <__sf_fake_stdin>:
	...

000036e8 <__sf_fake_stdout>:
	...
    3708:	2d23 2b30 0020 0000 6c68 004c 6665 4567     #-0+ ...hlL.efgE
    3718:	4746 0000 3130 3332 3534 3736 3938 4241     FG..0123456789AB
    3728:	4443 4645 0000 0000 3130 3332 3534 3736     CDEF....01234567
    3738:	3938 6261 6463 6665 0000 0000               89abcdef....
